Component: ARM Compiler 5.06 update 2 (build 183) Tool: armlink [4d35b7]

==============================================================================

Section Cross References

    usb_core.o(i.USB_OTG_ActiveRemoteWakeup) refers to usb_bsp.o(i.USB_OTG_BSP_mDelay) for USB_OTG_BSP_mDelay
    usb_core.o(i.USB_OTG_CoreInit) refers to usb_core.o(i.USB_OTG_CoreReset) for USB_OTG_CoreReset
    usb_core.o(i.USB_OTG_CoreInit) refers to usb_bsp.o(i.USB_OTG_BSP_mDelay) for USB_OTG_BSP_mDelay
    usb_core.o(i.USB_OTG_CoreInitDev) refers to usb_core.o(i.USB_OTG_InitDevSpeed) for USB_OTG_InitDevSpeed
    usb_core.o(i.USB_OTG_CoreInitDev) refers to usb_core.o(i.USB_OTG_FlushTxFifo) for USB_OTG_FlushTxFifo
    usb_core.o(i.USB_OTG_CoreInitDev) refers to usb_core.o(i.USB_OTG_FlushRxFifo) for USB_OTG_FlushRxFifo
    usb_core.o(i.USB_OTG_CoreInitDev) refers to usb_core.o(i.USB_OTG_EnableDevInt) for USB_OTG_EnableDevInt
    usb_core.o(i.USB_OTG_CoreReset) refers to usb_bsp.o(i.USB_OTG_BSP_uDelay) for USB_OTG_BSP_uDelay
    usb_core.o(i.USB_OTG_EPStartXfer) refers to usb_core.o(i.USB_OTG_WritePacket) for USB_OTG_WritePacket
    usb_core.o(i.USB_OTG_FlushRxFifo) refers to usb_bsp.o(i.USB_OTG_BSP_uDelay) for USB_OTG_BSP_uDelay
    usb_core.o(i.USB_OTG_FlushTxFifo) refers to usb_bsp.o(i.USB_OTG_BSP_uDelay) for USB_OTG_BSP_uDelay
    usb_core.o(i.USB_OTG_SetCurrentMode) refers to usb_bsp.o(i.USB_OTG_BSP_mDelay) for USB_OTG_BSP_mDelay
    usb_core.o(i.USB_OTG_SetEPStatus) refers to usb_core.o(i.USB_OTG_EPSetStall) for USB_OTG_EPSetStall
    usb_core.o(i.USB_OTG_SetEPStatus) refers to usb_core.o(i.USB_OTG_EPClearStall) for USB_OTG_EPClearStall
    usb_core.o(i.USB_OTG_StopDevice) refers to usb_core.o(i.USB_OTG_FlushRxFifo) for USB_OTG_FlushRxFifo
    usb_core.o(i.USB_OTG_StopDevice) refers to usb_core.o(i.USB_OTG_FlushTxFifo) for USB_OTG_FlushTxFifo
    usb_dcd_int.o(i.DCD_HandleInEP_ISR) refers to usb_core.o(i.USB_OTG_ReadDevAllInEPItr) for USB_OTG_ReadDevAllInEPItr
    usb_dcd_int.o(i.DCD_HandleInEP_ISR) refers to usb_core.o(i.USB_OTG_EP0_OutStart) for USB_OTG_EP0_OutStart
    usb_dcd_int.o(i.DCD_HandleInEP_ISR) refers to usb_dcd_int.o(i.DCD_WriteEmptyTxFifo) for DCD_WriteEmptyTxFifo
    usb_dcd_int.o(i.DCD_HandleInEP_ISR) refers to usbd_core.o(.data) for USBD_DCD_INT_fops
    usb_dcd_int.o(i.DCD_HandleOutEP_ISR) refers to usb_core.o(i.USB_OTG_ReadDevAllOutEp_itr) for USB_OTG_ReadDevAllOutEp_itr
    usb_dcd_int.o(i.DCD_HandleOutEP_ISR) refers to usb_core.o(i.USB_OTG_ReadDevOutEP_itr) for USB_OTG_ReadDevOutEP_itr
    usb_dcd_int.o(i.DCD_HandleOutEP_ISR) refers to usb_core.o(i.USB_OTG_EP0_OutStart) for USB_OTG_EP0_OutStart
    usb_dcd_int.o(i.DCD_HandleOutEP_ISR) refers to usbd_core.o(.data) for USBD_DCD_INT_fops
    usb_dcd_int.o(i.DCD_HandleRxStatusQueueLevel_ISR) refers to usb_core.o(i.USB_OTG_ReadPacket) for USB_OTG_ReadPacket
    usb_dcd_int.o(i.DCD_HandleUSBSuspend_ISR) refers to usbd_core.o(.data) for USBD_DCD_INT_fops
    usb_dcd_int.o(i.DCD_HandleUsbReset_ISR) refers to usb_core.o(i.USB_OTG_FlushTxFifo) for USB_OTG_FlushTxFifo
    usb_dcd_int.o(i.DCD_HandleUsbReset_ISR) refers to usb_core.o(i.USB_OTG_EP0_OutStart) for USB_OTG_EP0_OutStart
    usb_dcd_int.o(i.DCD_HandleUsbReset_ISR) refers to usbd_core.o(.data) for USBD_DCD_INT_fops
    usb_dcd_int.o(i.DCD_WriteEmptyTxFifo) refers to usb_core.o(i.USB_OTG_WritePacket) for USB_OTG_WritePacket
    usb_dcd_int.o(i.USBD_OTG_EP1IN_ISR_Handler) refers to usb_dcd_int.o(i.DCD_WriteEmptyTxFifo) for DCD_WriteEmptyTxFifo
    usb_dcd_int.o(i.USBD_OTG_EP1IN_ISR_Handler) refers to usbd_core.o(.data) for USBD_DCD_INT_fops
    usb_dcd_int.o(i.USBD_OTG_EP1OUT_ISR_Handler) refers to usbd_core.o(.data) for USBD_DCD_INT_fops
    usb_dcd_int.o(i.USBD_OTG_ISR_Handler) refers to usb_core.o(i.USB_OTG_IsDeviceMode) for USB_OTG_IsDeviceMode
    usb_dcd_int.o(i.USBD_OTG_ISR_Handler) refers to usb_core.o(i.USB_OTG_ReadCoreItr) for USB_OTG_ReadCoreItr
    usb_dcd_int.o(i.USBD_OTG_ISR_Handler) refers to usb_dcd_int.o(i.DCD_HandleOutEP_ISR) for DCD_HandleOutEP_ISR
    usb_dcd_int.o(i.USBD_OTG_ISR_Handler) refers to usb_dcd_int.o(i.DCD_HandleInEP_ISR) for DCD_HandleInEP_ISR
    usb_dcd_int.o(i.USBD_OTG_ISR_Handler) refers to usb_dcd_int.o(i.DCD_HandleUSBSuspend_ISR) for DCD_HandleUSBSuspend_ISR
    usb_dcd_int.o(i.USBD_OTG_ISR_Handler) refers to usb_dcd_int.o(i.DCD_HandleRxStatusQueueLevel_ISR) for DCD_HandleRxStatusQueueLevel_ISR
    usb_dcd_int.o(i.USBD_OTG_ISR_Handler) refers to usb_dcd_int.o(i.DCD_HandleUsbReset_ISR) for DCD_HandleUsbReset_ISR
    usb_dcd_int.o(i.USBD_OTG_ISR_Handler) refers to usb_core.o(i.USB_OTG_EP0Activate) for USB_OTG_EP0Activate
    usb_dcd_int.o(i.USBD_OTG_ISR_Handler) refers to usb_core.o(i.USB_OTG_GetDeviceSpeed) for USB_OTG_GetDeviceSpeed
    usb_dcd_int.o(i.USBD_OTG_ISR_Handler) refers to usbd_core.o(.data) for USBD_DCD_INT_fops
    usb_dcd.o(i.DCD_DevConnect) refers to usb_bsp.o(i.USB_OTG_BSP_mDelay) for USB_OTG_BSP_mDelay
    usb_dcd.o(i.DCD_DevDisconnect) refers to usb_bsp.o(i.USB_OTG_BSP_mDelay) for USB_OTG_BSP_mDelay
    usb_dcd.o(i.DCD_EP_Close) refers to usb_core.o(i.USB_OTG_EPDeactivate) for USB_OTG_EPDeactivate
    usb_dcd.o(i.DCD_EP_ClrStall) refers to usb_core.o(i.USB_OTG_EPClearStall) for USB_OTG_EPClearStall
    usb_dcd.o(i.DCD_EP_Flush) refers to usb_core.o(i.USB_OTG_FlushTxFifo) for USB_OTG_FlushTxFifo
    usb_dcd.o(i.DCD_EP_Flush) refers to usb_core.o(i.USB_OTG_FlushRxFifo) for USB_OTG_FlushRxFifo
    usb_dcd.o(i.DCD_EP_Open) refers to usb_core.o(i.USB_OTG_EPActivate) for USB_OTG_EPActivate
    usb_dcd.o(i.DCD_EP_PrepareRx) refers to usb_core.o(i.USB_OTG_EPStartXfer) for USB_OTG_EPStartXfer
    usb_dcd.o(i.DCD_EP_PrepareRx) refers to usb_core.o(i.USB_OTG_EP0StartXfer) for USB_OTG_EP0StartXfer
    usb_dcd.o(i.DCD_EP_Stall) refers to usb_core.o(i.USB_OTG_EPSetStall) for USB_OTG_EPSetStall
    usb_dcd.o(i.DCD_EP_Tx) refers to usb_core.o(i.USB_OTG_EPStartXfer) for USB_OTG_EPStartXfer
    usb_dcd.o(i.DCD_EP_Tx) refers to usb_core.o(i.USB_OTG_EP0StartXfer) for USB_OTG_EP0StartXfer
    usb_dcd.o(i.DCD_GetEPStatus) refers to usb_core.o(i.USB_OTG_GetEPStatus) for USB_OTG_GetEPStatus
    usb_dcd.o(i.DCD_Init) refers to usb_core.o(i.USB_OTG_SelectCore) for USB_OTG_SelectCore
    usb_dcd.o(i.DCD_Init) refers to usb_core.o(i.USB_OTG_DisableGlobalInt) for USB_OTG_DisableGlobalInt
    usb_dcd.o(i.DCD_Init) refers to usb_core.o(i.USB_OTG_CoreInit) for USB_OTG_CoreInit
    usb_dcd.o(i.DCD_Init) refers to usb_core.o(i.USB_OTG_SetCurrentMode) for USB_OTG_SetCurrentMode
    usb_dcd.o(i.DCD_Init) refers to usb_core.o(i.USB_OTG_CoreInitDev) for USB_OTG_CoreInitDev
    usb_dcd.o(i.DCD_Init) refers to usb_core.o(i.USB_OTG_EnableGlobalInt) for USB_OTG_EnableGlobalInt
    usb_dcd.o(i.DCD_SetEPStatus) refers to usb_core.o(i.USB_OTG_SetEPStatus) for USB_OTG_SetEPStatus
    usb_bsp.o(i.USB_OTG_BSP_EnableInterrupt) refers to misc.o(i.NVIC_PriorityGroupConfig) for NVIC_PriorityGroupConfig
    usb_bsp.o(i.USB_OTG_BSP_EnableInterrupt) refers to misc.o(i.NVIC_Init) for NVIC_Init
    usb_bsp.o(i.USB_OTG_BSP_Init) refers to stm32f4xx_rcc.o(i.RCC_AHB1PeriphClockCmd) for RCC_AHB1PeriphClockCmd
    usb_bsp.o(i.USB_OTG_BSP_Init) refers to stm32f4xx_gpio.o(i.GPIO_PinAFConfig) for GPIO_PinAFConfig
    usb_bsp.o(i.USB_OTG_BSP_Init) refers to stm32f4xx_gpio.o(i.GPIO_Init) for GPIO_Init
    usb_bsp.o(i.USB_OTG_BSP_Init) refers to stm32f4xx_rcc.o(i.RCC_APB1PeriphResetCmd) for RCC_APB1PeriphResetCmd
    usb_bsp.o(i.USB_OTG_BSP_mDelay) refers to usb_bsp.o(i.USB_OTG_BSP_uDelay) for USB_OTG_BSP_uDelay
    usbd_usr.o(i.USBD_USR_DeviceConfigured) refers to notification.o(i.LED_ON) for LED_ON
    usbd_usr.o(i.USBD_USR_DeviceConfigured) refers to buzzer.o(i.buzzer_mission) for buzzer_mission
    usbd_usr.o(i.USBD_USR_DeviceConfigured) refers to usbd_usr.o(.data) for .data
    usbd_usr.o(i.USBD_USR_DeviceConnected) refers to notification.o(i.LED_ON) for LED_ON
    usbd_usr.o(i.USBD_USR_DeviceConnected) refers to usbd_usr.o(.data) for .data
    usbd_usr.o(i.USBD_USR_DeviceDisconnected) refers to notification.o(i.LED_OFF) for LED_OFF
    usbd_usr.o(i.USBD_USR_DeviceDisconnected) refers to usbd_usr.o(.data) for .data
    usbd_usr.o(i.USBD_USR_DeviceResumed) refers to notification.o(i.LED_ON) for LED_ON
    usbd_usr.o(i.USBD_USR_DeviceResumed) refers to usbd_usr.o(.data) for .data
    usbd_usr.o(i.USBD_USR_DeviceSuspended) refers to notification.o(i.LED_OFF) for LED_OFF
    usbd_usr.o(i.USBD_USR_DeviceSuspended) refers to usbd_usr.o(.data) for .data
    usbd_usr.o(.data) refers to usbd_usr.o(i.USBD_USR_Init) for USBD_USR_Init
    usbd_usr.o(.data) refers to usbd_usr.o(i.USBD_USR_DeviceReset) for USBD_USR_DeviceReset
    usbd_usr.o(.data) refers to usbd_usr.o(i.USBD_USR_DeviceConfigured) for USBD_USR_DeviceConfigured
    usbd_usr.o(.data) refers to usbd_usr.o(i.USBD_USR_DeviceSuspended) for USBD_USR_DeviceSuspended
    usbd_usr.o(.data) refers to usbd_usr.o(i.USBD_USR_DeviceResumed) for USBD_USR_DeviceResumed
    usbd_usr.o(.data) refers to usbd_usr.o(i.USBD_USR_DeviceConnected) for USBD_USR_DeviceConnected
    usbd_usr.o(.data) refers to usbd_usr.o(i.USBD_USR_DeviceDisconnected) for USBD_USR_DeviceDisconnected
    usbd_desc.o(i.USBD_USR_ConfigStrDescriptor) refers to usbd_req.o(i.USBD_GetString) for USBD_GetString
    usbd_desc.o(i.USBD_USR_ConfigStrDescriptor) refers to usbd_req.o(.bss) for USBD_StrDesc
    usbd_desc.o(i.USBD_USR_DeviceDescriptor) refers to usbd_desc.o(.data) for .data
    usbd_desc.o(i.USBD_USR_InterfaceStrDescriptor) refers to usbd_req.o(i.USBD_GetString) for USBD_GetString
    usbd_desc.o(i.USBD_USR_InterfaceStrDescriptor) refers to usbd_req.o(.bss) for USBD_StrDesc
    usbd_desc.o(i.USBD_USR_LangIDStrDescriptor) refers to usbd_desc.o(.data) for .data
    usbd_desc.o(i.USBD_USR_ManufacturerStrDescriptor) refers to usbd_req.o(i.USBD_GetString) for USBD_GetString
    usbd_desc.o(i.USBD_USR_ManufacturerStrDescriptor) refers to usbd_req.o(.bss) for USBD_StrDesc
    usbd_desc.o(i.USBD_USR_ProductStrDescriptor) refers to usbd_req.o(i.USBD_GetString) for USBD_GetString
    usbd_desc.o(i.USBD_USR_ProductStrDescriptor) refers to usbd_req.o(.bss) for USBD_StrDesc
    usbd_desc.o(i.USBD_USR_SerialStrDescriptor) refers to printf8.o(i.__0sprintf$8) for __2sprintf
    usbd_desc.o(i.USBD_USR_SerialStrDescriptor) refers to usbd_req.o(i.USBD_GetString) for USBD_GetString
    usbd_desc.o(i.USBD_USR_SerialStrDescriptor) refers to usbd_desc.o(.bss) for .bss
    usbd_desc.o(i.USBD_USR_SerialStrDescriptor) refers to usbd_req.o(.bss) for USBD_StrDesc
    usbd_desc.o(.data) refers to usbd_desc.o(i.USBD_USR_DeviceDescriptor) for USBD_USR_DeviceDescriptor
    usbd_desc.o(.data) refers to usbd_desc.o(i.USBD_USR_LangIDStrDescriptor) for USBD_USR_LangIDStrDescriptor
    usbd_desc.o(.data) refers to usbd_desc.o(i.USBD_USR_ManufacturerStrDescriptor) for USBD_USR_ManufacturerStrDescriptor
    usbd_desc.o(.data) refers to usbd_desc.o(i.USBD_USR_ProductStrDescriptor) for USBD_USR_ProductStrDescriptor
    usbd_desc.o(.data) refers to usbd_desc.o(i.USBD_USR_SerialStrDescriptor) for USBD_USR_SerialStrDescriptor
    usbd_desc.o(.data) refers to usbd_desc.o(i.USBD_USR_ConfigStrDescriptor) for USBD_USR_ConfigStrDescriptor
    usbd_desc.o(.data) refers to usbd_desc.o(i.USBD_USR_InterfaceStrDescriptor) for USBD_USR_InterfaceStrDescriptor
    usbd_core.o(i.USBD_DataInStage) refers to usbd_ioreq.o(i.USBD_CtlContinueSendData) for USBD_CtlContinueSendData
    usbd_core.o(i.USBD_DataInStage) refers to usbd_ioreq.o(i.USBD_CtlReceiveStatus) for USBD_CtlReceiveStatus
    usbd_core.o(i.USBD_DataInStage) refers to usbd_core.o(.data) for .data
    usbd_core.o(i.USBD_DataOutStage) refers to usbd_ioreq.o(i.USBD_CtlContinueRx) for USBD_CtlContinueRx
    usbd_core.o(i.USBD_DataOutStage) refers to usbd_ioreq.o(i.USBD_CtlSendStatus) for USBD_CtlSendStatus
    usbd_core.o(i.USBD_Init) refers to usb_bsp.o(i.USB_OTG_BSP_Init) for USB_OTG_BSP_Init
    usbd_core.o(i.USBD_Init) refers to usb_dcd.o(i.DCD_Init) for DCD_Init
    usbd_core.o(i.USBD_Init) refers to usb_bsp.o(i.USB_OTG_BSP_EnableInterrupt) for USB_OTG_BSP_EnableInterrupt
    usbd_core.o(i.USBD_Reset) refers to usb_dcd.o(i.DCD_EP_Open) for DCD_EP_Open
    usbd_core.o(i.USBD_SetupStage) refers to usbd_req.o(i.USBD_ParseSetupRequest) for USBD_ParseSetupRequest
    usbd_core.o(i.USBD_SetupStage) refers to usb_dcd.o(i.DCD_EP_Stall) for DCD_EP_Stall
    usbd_core.o(i.USBD_SetupStage) refers to usbd_req.o(i.USBD_StdDevReq) for USBD_StdDevReq
    usbd_core.o(i.USBD_SetupStage) refers to usbd_req.o(i.USBD_StdItfReq) for USBD_StdItfReq
    usbd_core.o(i.USBD_SetupStage) refers to usbd_req.o(i.USBD_StdEPReq) for USBD_StdEPReq
    usbd_core.o(.data) refers to usbd_core.o(i.USBD_DataOutStage) for USBD_DataOutStage
    usbd_core.o(.data) refers to usbd_core.o(i.USBD_DataInStage) for USBD_DataInStage
    usbd_core.o(.data) refers to usbd_core.o(i.USBD_SetupStage) for USBD_SetupStage
    usbd_core.o(.data) refers to usbd_core.o(i.USBD_SOF) for USBD_SOF
    usbd_core.o(.data) refers to usbd_core.o(i.USBD_Reset) for USBD_Reset
    usbd_core.o(.data) refers to usbd_core.o(i.USBD_Suspend) for USBD_Suspend
    usbd_core.o(.data) refers to usbd_core.o(i.USBD_Resume) for USBD_Resume
    usbd_core.o(.data) refers to usbd_core.o(i.USBD_IsoINIncomplete) for USBD_IsoINIncomplete
    usbd_core.o(.data) refers to usbd_core.o(i.USBD_IsoOUTIncomplete) for USBD_IsoOUTIncomplete
    usbd_core.o(.data) refers to usbd_core.o(.data) for USBD_DCD_INT_cb
    usbd_ioreq.o(i.USBD_CtlContinueRx) refers to usb_dcd.o(i.DCD_EP_PrepareRx) for DCD_EP_PrepareRx
    usbd_ioreq.o(i.USBD_CtlContinueSendData) refers to usb_dcd.o(i.DCD_EP_Tx) for DCD_EP_Tx
    usbd_ioreq.o(i.USBD_CtlPrepareRx) refers to usb_dcd.o(i.DCD_EP_PrepareRx) for DCD_EP_PrepareRx
    usbd_ioreq.o(i.USBD_CtlReceiveStatus) refers to usb_dcd.o(i.DCD_EP_PrepareRx) for DCD_EP_PrepareRx
    usbd_ioreq.o(i.USBD_CtlReceiveStatus) refers to usb_core.o(i.USB_OTG_EP0_OutStart) for USB_OTG_EP0_OutStart
    usbd_ioreq.o(i.USBD_CtlSendData) refers to usb_dcd.o(i.DCD_EP_Tx) for DCD_EP_Tx
    usbd_ioreq.o(i.USBD_CtlSendStatus) refers to usb_dcd.o(i.DCD_EP_Tx) for DCD_EP_Tx
    usbd_ioreq.o(i.USBD_CtlSendStatus) refers to usb_core.o(i.USB_OTG_EP0_OutStart) for USB_OTG_EP0_OutStart
    usbd_req.o(i.USBD_CtlError) refers to usb_dcd.o(i.DCD_EP_Stall) for DCD_EP_Stall
    usbd_req.o(i.USBD_CtlError) refers to usb_core.o(i.USB_OTG_EP0_OutStart) for USB_OTG_EP0_OutStart
    usbd_req.o(i.USBD_GetDescriptor) refers to usbd_req.o(i.USBD_CtlError) for USBD_CtlError
    usbd_req.o(i.USBD_GetDescriptor) refers to usbd_ioreq.o(i.USBD_CtlSendData) for USBD_CtlSendData
    usbd_req.o(i.USBD_GetDescriptor) refers to usbd_desc.o(.data) for USBD_DeviceQualifierDesc
    usbd_req.o(i.USBD_SetConfig) refers to usbd_req.o(i.USBD_CtlError) for USBD_CtlError
    usbd_req.o(i.USBD_SetConfig) refers to usbd_core.o(i.USBD_ClrCfg) for USBD_ClrCfg
    usbd_req.o(i.USBD_SetConfig) refers to usbd_core.o(i.USBD_SetCfg) for USBD_SetCfg
    usbd_req.o(i.USBD_SetConfig) refers to usbd_ioreq.o(i.USBD_CtlSendStatus) for USBD_CtlSendStatus
    usbd_req.o(i.USBD_SetConfig) refers to usbd_req.o(.data) for .data
    usbd_req.o(i.USBD_SetFeature) refers to usbd_ioreq.o(i.USBD_CtlSendStatus) for USBD_CtlSendStatus
    usbd_req.o(i.USBD_SetFeature) refers to usbd_core.o(.data) for SET_TEST_MODE
    usbd_req.o(i.USBD_StdDevReq) refers to usbd_req.o(i.USBD_GetDescriptor) for USBD_GetDescriptor
    usbd_req.o(i.USBD_StdDevReq) refers to usb_dcd.o(i.DCD_EP_SetAddress) for DCD_EP_SetAddress
    usbd_req.o(i.USBD_StdDevReq) refers to usbd_ioreq.o(i.USBD_CtlSendStatus) for USBD_CtlSendStatus
    usbd_req.o(i.USBD_StdDevReq) refers to usbd_req.o(i.USBD_SetConfig) for USBD_SetConfig
    usbd_req.o(i.USBD_StdDevReq) refers to usbd_req.o(i.USBD_CtlError) for USBD_CtlError
    usbd_req.o(i.USBD_StdDevReq) refers to usbd_ioreq.o(i.USBD_CtlSendData) for USBD_CtlSendData
    usbd_req.o(i.USBD_StdDevReq) refers to usbd_req.o(i.USBD_SetFeature) for USBD_SetFeature
    usbd_req.o(i.USBD_StdDevReq) refers to usbd_req.o(.data) for .data
    usbd_req.o(i.USBD_StdEPReq) refers to usb_dcd.o(i.DCD_EP_Stall) for DCD_EP_Stall
    usbd_req.o(i.USBD_StdEPReq) refers to usb_dcd.o(i.DCD_EP_ClrStall) for DCD_EP_ClrStall
    usbd_req.o(i.USBD_StdEPReq) refers to usbd_ioreq.o(i.USBD_CtlSendStatus) for USBD_CtlSendStatus
    usbd_req.o(i.USBD_StdEPReq) refers to usbd_req.o(i.USBD_CtlError) for USBD_CtlError
    usbd_req.o(i.USBD_StdEPReq) refers to usbd_ioreq.o(i.USBD_CtlSendData) for USBD_CtlSendData
    usbd_req.o(i.USBD_StdEPReq) refers to usbd_req.o(.data) for .data
    usbd_req.o(i.USBD_StdItfReq) refers to usbd_ioreq.o(i.USBD_CtlSendStatus) for USBD_CtlSendStatus
    usbd_req.o(i.USBD_StdItfReq) refers to usbd_req.o(i.USBD_CtlError) for USBD_CtlError
    usbd_cdc_core.o(i.USBD_cdc_GetCfgDesc) refers to usbd_cdc_core.o(.data) for .data
    usbd_cdc_core.o(i.USBD_cdc_GetOtherCfgDesc) refers to usbd_cdc_core.o(.data) for .data
    usbd_cdc_core.o(i.usbd_cdc_DataIn) refers to usbd_cdc_core.o(.data) for .data
    usbd_cdc_core.o(i.usbd_cdc_DataOut) refers to usbd_ioreq.o(i.USBD_GetRxCount) for USBD_GetRxCount
    usbd_cdc_core.o(i.usbd_cdc_DataOut) refers to usb_dcd.o(i.DCD_EP_PrepareRx) for DCD_EP_PrepareRx
    usbd_cdc_core.o(i.usbd_cdc_DataOut) refers to mission.o(i.mission_polling) for mission_polling
    usbd_cdc_core.o(i.usbd_cdc_DataOut) refers to usbd_cdc_core.o(.data) for .data
    usbd_cdc_core.o(i.usbd_cdc_DataOut) refers to usbd_cdc_core.o(.bss) for .bss
    usbd_cdc_core.o(i.usbd_cdc_DataOut) refers to can.o(.ARM.__AT_0x10000008) for USBRxCanBufferIndex
    usbd_cdc_core.o(i.usbd_cdc_DataOut) refers to can.o(.ARM.__AT_0x10002928) for USBRxMessage
    usbd_cdc_core.o(i.usbd_cdc_DataOut) refers to can.o(.data) for USB2CAN_STATE
    usbd_cdc_core.o(i.usbd_cdc_DeInit) refers to usb_dcd.o(i.DCD_EP_Close) for DCD_EP_Close
    usbd_cdc_core.o(i.usbd_cdc_EP0_RxReady) refers to usbd_cdc_core.o(.data) for .data
    usbd_cdc_core.o(i.usbd_cdc_Init) refers to usb_dcd.o(i.DCD_EP_Open) for DCD_EP_Open
    usbd_cdc_core.o(i.usbd_cdc_Init) refers to usb_dcd.o(i.DCD_EP_PrepareRx) for DCD_EP_PrepareRx
    usbd_cdc_core.o(i.usbd_cdc_Init) refers to usb_dcd.o(i.DCD_EP_Flush) for DCD_EP_Flush
    usbd_cdc_core.o(i.usbd_cdc_Init) refers to usbd_cdc_core.o(.bss) for .bss
    usbd_cdc_core.o(i.usbd_cdc_Setup) refers to usbd_req.o(i.USBD_CtlError) for USBD_CtlError
    usbd_cdc_core.o(i.usbd_cdc_Setup) refers to usbd_ioreq.o(i.USBD_CtlPrepareRx) for USBD_CtlPrepareRx
    usbd_cdc_core.o(i.usbd_cdc_Setup) refers to usbd_ioreq.o(i.USBD_CtlSendData) for USBD_CtlSendData
    usbd_cdc_core.o(i.usbd_cdc_Setup) refers to usbd_cdc_core.o(.data) for .data
    usbd_cdc_core.o(.data) refers to usbd_cdc_core.o(i.usbd_cdc_Init) for usbd_cdc_Init
    usbd_cdc_core.o(.data) refers to usbd_cdc_core.o(i.usbd_cdc_DeInit) for usbd_cdc_DeInit
    usbd_cdc_core.o(.data) refers to usbd_cdc_core.o(i.usbd_cdc_Setup) for usbd_cdc_Setup
    usbd_cdc_core.o(.data) refers to usbd_cdc_core.o(i.usbd_cdc_EP0_RxReady) for usbd_cdc_EP0_RxReady
    usbd_cdc_core.o(.data) refers to usbd_cdc_core.o(i.usbd_cdc_DataIn) for usbd_cdc_DataIn
    usbd_cdc_core.o(.data) refers to usbd_cdc_core.o(i.usbd_cdc_DataOut) for usbd_cdc_DataOut
    usbd_cdc_core.o(.data) refers to usbd_cdc_core.o(i.USBD_cdc_GetCfgDesc) for USBD_cdc_GetCfgDesc
    usbd_cdc_core.o(.data) refers to usbd_cdc_core.o(i.USBD_cdc_GetOtherCfgDesc) for USBD_cdc_GetOtherCfgDesc
    stm32f4xx_adc.o(i.ADC_DeInit) refers to stm32f4xx_rcc.o(i.RCC_APB2PeriphResetCmd) for RCC_APB2PeriphResetCmd
    stm32f4xx_can.o(i.CAN_DeInit) refers to stm32f4xx_rcc.o(i.RCC_APB1PeriphResetCmd) for RCC_APB1PeriphResetCmd
    stm32f4xx_can.o(i.CAN_GetITStatus) refers to stm32f4xx_can.o(i.CheckITStatus) for CheckITStatus
    stm32f4xx_flash.o(i.FLASH_EraseAllBank1Sectors) refers to stm32f4xx_flash.o(i.FLASH_WaitForLastOperation) for FLASH_WaitForLastOperation
    stm32f4xx_flash.o(i.FLASH_EraseAllBank2Sectors) refers to stm32f4xx_flash.o(i.FLASH_WaitForLastOperation) for FLASH_WaitForLastOperation
    stm32f4xx_flash.o(i.FLASH_EraseAllSectors) refers to stm32f4xx_flash.o(i.FLASH_WaitForLastOperation) for FLASH_WaitForLastOperation
    stm32f4xx_flash.o(i.FLASH_EraseSector) refers to stm32f4xx_flash.o(i.FLASH_WaitForLastOperation) for FLASH_WaitForLastOperation
    stm32f4xx_flash.o(i.FLASH_OB_Launch) refers to stm32f4xx_flash.o(i.FLASH_WaitForLastOperation) for FLASH_WaitForLastOperation
    stm32f4xx_flash.o(i.FLASH_OB_PCROP1Config) refers to stm32f4xx_flash.o(i.FLASH_WaitForLastOperation) for FLASH_WaitForLastOperation
    stm32f4xx_flash.o(i.FLASH_OB_PCROPConfig) refers to stm32f4xx_flash.o(i.FLASH_WaitForLastOperation) for FLASH_WaitForLastOperation
    stm32f4xx_flash.o(i.FLASH_OB_RDPConfig) refers to stm32f4xx_flash.o(i.FLASH_WaitForLastOperation) for FLASH_WaitForLastOperation
    stm32f4xx_flash.o(i.FLASH_OB_UserConfig) refers to stm32f4xx_flash.o(i.FLASH_WaitForLastOperation) for FLASH_WaitForLastOperation
    stm32f4xx_flash.o(i.FLASH_OB_WRP1Config) refers to stm32f4xx_flash.o(i.FLASH_WaitForLastOperation) for FLASH_WaitForLastOperation
    stm32f4xx_flash.o(i.FLASH_OB_WRPConfig) refers to stm32f4xx_flash.o(i.FLASH_WaitForLastOperation) for FLASH_WaitForLastOperation
    stm32f4xx_flash.o(i.FLASH_ProgramByte) refers to stm32f4xx_flash.o(i.FLASH_WaitForLastOperation) for FLASH_WaitForLastOperation
    stm32f4xx_flash.o(i.FLASH_ProgramDoubleWord) refers to stm32f4xx_flash.o(i.FLASH_WaitForLastOperation) for FLASH_WaitForLastOperation
    stm32f4xx_flash.o(i.FLASH_ProgramHalfWord) refers to stm32f4xx_flash.o(i.FLASH_WaitForLastOperation) for FLASH_WaitForLastOperation
    stm32f4xx_flash.o(i.FLASH_ProgramWord) refers to stm32f4xx_flash.o(i.FLASH_WaitForLastOperation) for FLASH_WaitForLastOperation
    stm32f4xx_flash.o(i.FLASH_WaitForLastOperation) refers to stm32f4xx_flash.o(i.FLASH_GetStatus) for FLASH_GetStatus
    stm32f4xx_gpio.o(i.GPIO_DeInit) refers to stm32f4xx_rcc.o(i.RCC_AHB1PeriphResetCmd) for RCC_AHB1PeriphResetCmd
    stm32f4xx_pwr.o(i.PWR_DeInit) refers to stm32f4xx_rcc.o(i.RCC_APB1PeriphResetCmd) for RCC_APB1PeriphResetCmd
    stm32f4xx_rcc.o(i.RCC_GetClocksFreq) refers to stm32f4xx_rcc.o(.data) for .data
    stm32f4xx_rcc.o(i.RCC_WaitForHSEStartUp) refers to stm32f4xx_rcc.o(i.RCC_GetFlagStatus) for RCC_GetFlagStatus
    stm32f4xx_syscfg.o(i.SYSCFG_DeInit) refers to stm32f4xx_rcc.o(i.RCC_APB2PeriphResetCmd) for RCC_APB2PeriphResetCmd
    stm32f4xx_tim.o(i.TIM_DeInit) refers to stm32f4xx_rcc.o(i.RCC_APB2PeriphResetCmd) for RCC_APB2PeriphResetCmd
    stm32f4xx_tim.o(i.TIM_DeInit) refers to stm32f4xx_rcc.o(i.RCC_APB1PeriphResetCmd) for RCC_APB1PeriphResetCmd
    stm32f4xx_tim.o(i.TIM_ETRClockMode1Config) refers to stm32f4xx_tim.o(i.TIM_ETRConfig) for TIM_ETRConfig
    stm32f4xx_tim.o(i.TIM_ETRClockMode2Config) refers to stm32f4xx_tim.o(i.TIM_ETRConfig) for TIM_ETRConfig
    stm32f4xx_tim.o(i.TIM_ICInit) refers to stm32f4xx_tim.o(i.TIM_SetIC4Prescaler) for TIM_SetIC4Prescaler
    stm32f4xx_tim.o(i.TIM_ICInit) refers to stm32f4xx_tim.o(i.TI1_Config) for TI1_Config
    stm32f4xx_tim.o(i.TIM_ICInit) refers to stm32f4xx_tim.o(i.TIM_SetIC1Prescaler) for TIM_SetIC1Prescaler
    stm32f4xx_tim.o(i.TIM_ICInit) refers to stm32f4xx_tim.o(i.TI2_Config) for TI2_Config
    stm32f4xx_tim.o(i.TIM_ICInit) refers to stm32f4xx_tim.o(i.TIM_SetIC2Prescaler) for TIM_SetIC2Prescaler
    stm32f4xx_tim.o(i.TIM_ICInit) refers to stm32f4xx_tim.o(i.TIM_SetIC3Prescaler) for TIM_SetIC3Prescaler
    stm32f4xx_tim.o(i.TIM_ITRxExternalClockConfig) refers to stm32f4xx_tim.o(i.TIM_SelectInputTrigger) for TIM_SelectInputTrigger
    stm32f4xx_tim.o(i.TIM_PWMIConfig) refers to stm32f4xx_tim.o(i.TI2_Config) for TI2_Config
    stm32f4xx_tim.o(i.TIM_PWMIConfig) refers to stm32f4xx_tim.o(i.TIM_SetIC2Prescaler) for TIM_SetIC2Prescaler
    stm32f4xx_tim.o(i.TIM_PWMIConfig) refers to stm32f4xx_tim.o(i.TI1_Config) for TI1_Config
    stm32f4xx_tim.o(i.TIM_PWMIConfig) refers to stm32f4xx_tim.o(i.TIM_SetIC1Prescaler) for TIM_SetIC1Prescaler
    stm32f4xx_tim.o(i.TIM_TIxExternalClockConfig) refers to stm32f4xx_tim.o(i.TI1_Config) for TI1_Config
    stm32f4xx_tim.o(i.TIM_TIxExternalClockConfig) refers to stm32f4xx_tim.o(i.TIM_SelectInputTrigger) for TIM_SelectInputTrigger
    stm32f4xx_tim.o(i.TIM_TIxExternalClockConfig) refers to stm32f4xx_tim.o(i.TI2_Config) for TI2_Config
    stm32f4xx_usart.o(i.USART_DeInit) refers to stm32f4xx_rcc.o(i.RCC_APB2PeriphResetCmd) for RCC_APB2PeriphResetCmd
    stm32f4xx_usart.o(i.USART_DeInit) refers to stm32f4xx_rcc.o(i.RCC_APB1PeriphResetCmd) for RCC_APB1PeriphResetCmd
    stm32f4xx_usart.o(i.USART_Init) refers to stm32f4xx_rcc.o(i.RCC_GetClocksFreq) for RCC_GetClocksFreq
    stm32f4xx_wwdg.o(i.WWDG_DeInit) refers to stm32f4xx_rcc.o(i.RCC_APB1PeriphResetCmd) for RCC_APB1PeriphResetCmd
    main.o(i.main) refers to usbd_core.o(i.USBD_Init) for USBD_Init
    main.o(i.main) refers to can.o(i.CAN1_Mode_Init) for CAN1_Mode_Init
    main.o(i.main) refers to tm_stm32f4_usart.o(i.TM_USART_Init) for TM_USART_Init
    main.o(i.main) refers to tm_stm32f4_usart_dma.o(i.TM_USART_DMA_Init) for TM_USART_DMA_Init
    main.o(i.main) refers to one_dimension_code.o(i.one_dimension_code_init) for one_dimension_code_init
    main.o(i.main) refers to coder.o(i.EXTIX_Init) for EXTIX_Init
    main.o(i.main) refers to coder.o(i.configureEncoder) for configureEncoder
    main.o(i.main) refers to stmflash.o(i.flash_init) for flash_init
    main.o(i.main) refers to notification.o(i.LED_init) for LED_init
    main.o(i.main) refers to notification.o(i.LED1_init) for LED1_init
    main.o(i.main) refers to cooler.o(i.cooler_init) for cooler_init
    main.o(i.main) refers to b3470.o(i.b3470_init) for b3470_init
    main.o(i.main) refers to microstepdriver.o(i.MSD_Init) for MSD_Init
    main.o(i.main) refers to cooler.o(i.power_init) for power_init
    main.o(i.main) refers to buzzer.o(i.BUZZER_Init) for BUZZER_Init
    main.o(i.main) refers to stm32f4xx_rcc.o(i.RCC_GetFlagStatus) for RCC_GetFlagStatus
    main.o(i.main) refers to wwdg.o(i.system_attribute_init) for system_attribute_init
    main.o(i.main) refers to tm_stm32f4_watchdog.o(i.TM_WATCHDOG_Init) for TM_WATCHDOG_Init
    main.o(i.main) refers to temp_control.o(i.temp_display_mission) for temp_display_mission
    main.o(i.main) refers to buzzer.o(i.BUZZER_mission_polling) for BUZZER_mission_polling
    main.o(i.main) refers to msd_test.o(i.motor_move_polling) for motor_move_polling
    main.o(i.main) refers to msd_test.o(i.motor_reset) for motor_reset
    main.o(i.main) refers to msd_test.o(i.motor_shocking) for motor_shocking
    main.o(i.main) refers to usart_screen.o(i.su_mission_polling) for su_mission_polling
    main.o(i.main) refers to stmflash.o(i.flash_mission_polling) for flash_mission_polling
    main.o(i.main) refers to temp_control.o(i.lm75a_mission_polling) for lm75a_mission_polling
    main.o(i.main) refers to notification.o(i.led_mission_polling) for led_mission_polling
    main.o(i.main) refers to temp_control.o(i.lm75a_temp_read_polling) for lm75a_temp_read_polling
    main.o(i.main) refers to one_dimension_code.o(i.one_dimension_code_mission_polling) for one_dimension_code_mission_polling
    main.o(i.main) refers to msd_test.o(i.motor_maintain_polling) for motor_maintain_polling
    main.o(i.main) refers to cooler.o(i.cooler_pwm_mission) for cooler_pwm_mission
    main.o(i.main) refers to wwdg.o(i.watch_dog_recovery) for watch_dog_recovery
    main.o(i.main) refers to mission.o(i.timer_reset) for timer_reset
    main.o(i.main) refers to notification.o(i.led_to_notification) for led_to_notification
    main.o(i.main) refers to usb_dcd.o(i.DCD_EP_Tx) for DCD_EP_Tx
    main.o(i.main) refers to can.o(i.parpareUSBframe) for parpareUSBframe
    main.o(i.main) refers to can.o(i.poniter_plus_one) for poniter_plus_one
    main.o(i.main) refers to stm32f4xx_can.o(i.CAN_Transmit) for CAN_Transmit
    main.o(i.main) refers to usbd_usr.o(.data) for USR_cb
    main.o(i.main) refers to usbd_cdc_core.o(.data) for USBD_CDC_cb
    main.o(i.main) refers to usbd_desc.o(.data) for USR_desc
    main.o(i.main) refers to main.o(.bss) for .bss
    main.o(i.main) refers to system_stm32f4xx.o(.data) for SystemCoreClock
    main.o(i.main) refers to usbd_cdc_core.o(.data) for USB_StatusDataSended
    main.o(i.main) refers to can.o(.data) for USB2CAN_STATE
    main.o(i.main) refers to stm32fxxx_it.o(.data) for time
    main.o(i.main) refers to mission.o(.data) for usb_waittime
    main.o(i.main) refers to msd_test.o(.bss) for motor
    main.o(i.main) refers to can.o(.ARM.__AT_0x10000010) for canRxMsgBufferIndex
    main.o(i.main) refers to can.o(.ARM.__AT_0x10000014) for canRxIndex
    main.o(i.main) refers to main.o(.data) for .data
    main.o(i.main) refers to can.o(.ARM.__AT_0x10000008) for USBRxCanBufferIndex
    main.o(i.main) refers to can.o(.ARM.__AT_0x1000000C) for USBRxIndex
    main.o(i.main) refers to can.o(.ARM.__AT_0x10002928) for USBRxMessage
    stm32fxxx_it.o(i.OTG_HS_EP1_IN_IRQHandler) refers to usb_dcd_int.o(i.USBD_OTG_EP1IN_ISR_Handler) for USBD_OTG_EP1IN_ISR_Handler
    stm32fxxx_it.o(i.OTG_HS_EP1_IN_IRQHandler) refers to main.o(.bss) for USB_OTG_dev
    stm32fxxx_it.o(i.OTG_HS_EP1_OUT_IRQHandler) refers to usb_dcd_int.o(i.USBD_OTG_EP1OUT_ISR_Handler) for USBD_OTG_EP1OUT_ISR_Handler
    stm32fxxx_it.o(i.OTG_HS_EP1_OUT_IRQHandler) refers to main.o(.bss) for USB_OTG_dev
    stm32fxxx_it.o(i.OTG_HS_IRQHandler) refers to usb_dcd_int.o(i.USBD_OTG_ISR_Handler) for USBD_OTG_ISR_Handler
    stm32fxxx_it.o(i.OTG_HS_IRQHandler) refers to main.o(.bss) for USB_OTG_dev
    stm32fxxx_it.o(i.OTG_HS_WKUP_IRQHandler) refers to system_stm32f4xx.o(i.SystemInit) for SystemInit
    stm32fxxx_it.o(i.OTG_HS_WKUP_IRQHandler) refers to usb_core.o(i.USB_OTG_UngateClock) for USB_OTG_UngateClock
    stm32fxxx_it.o(i.OTG_HS_WKUP_IRQHandler) refers to stm32f4xx_exti.o(i.EXTI_ClearITPendingBit) for EXTI_ClearITPendingBit
    stm32fxxx_it.o(i.OTG_HS_WKUP_IRQHandler) refers to main.o(.bss) for USB_OTG_dev
    stm32fxxx_it.o(i.SysTick_Handler) refers to stm32fxxx_it.o(.data) for .data
    delay.o(i.delay_init) refers to delay.o(.data) for .data
    delay.o(i.delay_ms) refers to delay.o(i.delay_xms) for delay_xms
    delay.o(i.delay_us) refers to delay.o(.data) for .data
    delay.o(i.delay_xms) refers to delay.o(.data) for .data
    usart.o(i.USART_Configuration) refers to usart.o(i.USART_RCC_Configuration) for USART_RCC_Configuration
    usart.o(i.USART_Configuration) refers to usart.o(i.USART_GPIO_Configuration) for USART_GPIO_Configuration
    usart.o(i.USART_Configuration) refers to stm32f4xx_usart.o(i.USART_Init) for USART_Init
    usart.o(i.USART_Configuration) refers to stm32f4xx_usart.o(i.USART_ITConfig) for USART_ITConfig
    usart.o(i.USART_Configuration) refers to stm32f4xx_usart.o(i.USART_Cmd) for USART_Cmd
    usart.o(i.USART_Configuration) refers to stm32f4xx_usart.o(i.USART_ClearFlag) for USART_ClearFlag
    usart.o(i.USART_GPIO_Configuration) refers to stm32f4xx_gpio.o(i.GPIO_Init) for GPIO_Init
    usart.o(i.USART_RCC_Configuration) refers to stm32f4xx_rcc.o(i.RCC_AHB1PeriphClockCmd) for RCC_AHB1PeriphClockCmd
    usart.o(i.USART_RCC_Configuration) refers to stm32f4xx_rcc.o(i.RCC_APB2PeriphClockCmd) for RCC_APB2PeriphClockCmd
    usart.o(i.USART_RCC_Configuration) refers to stm32f4xx_gpio.o(i.GPIO_PinAFConfig) for GPIO_PinAFConfig
    usart.o(i.fputc) refers to stm32f4xx_usart.o(i.USART_SendData) for USART_SendData
    usart.o(i.fputc) refers to stm32f4xx_usart.o(i.USART_GetFlagStatus) for USART_GetFlagStatus
    can.o(i.CAN1_Mode_Init) refers to stm32f4xx_rcc.o(i.RCC_AHB1PeriphClockCmd) for RCC_AHB1PeriphClockCmd
    can.o(i.CAN1_Mode_Init) refers to stm32f4xx_rcc.o(i.RCC_APB1PeriphClockCmd) for RCC_APB1PeriphClockCmd
    can.o(i.CAN1_Mode_Init) refers to stm32f4xx_gpio.o(i.GPIO_Init) for GPIO_Init
    can.o(i.CAN1_Mode_Init) refers to stm32f4xx_gpio.o(i.GPIO_PinAFConfig) for GPIO_PinAFConfig
    can.o(i.CAN1_Mode_Init) refers to stm32f4xx_can.o(i.CAN_Init) for CAN_Init
    can.o(i.CAN1_Mode_Init) refers to stm32f4xx_can.o(i.CAN_FilterInit) for CAN_FilterInit
    can.o(i.CAN1_Mode_Init) refers to stm32f4xx_can.o(i.CAN_ITConfig) for CAN_ITConfig
    can.o(i.CAN1_Mode_Init) refers to misc.o(i.NVIC_Init) for NVIC_Init
    can.o(i.CAN1_RX0_IRQHandler) refers to stm32f4xx_can.o(i.CAN_Receive) for CAN_Receive
    can.o(i.CAN1_RX0_IRQHandler) refers to notification.o(i.led_to_notification) for led_to_notification
    can.o(i.CAN1_RX0_IRQHandler) refers to can.o(.ARM.__AT_0x10000010) for .ARM.__AT_0x10000010
    can.o(i.CAN1_RX0_IRQHandler) refers to can.o(.ARM.__AT_0x10000218) for .ARM.__AT_0x10000218
    can.o(i.action_failed_send) refers to can.o(i.one_can_frame_send) for one_can_frame_send
    can.o(i.action_failed_send) refers to msd_test.o(.bss) for motor
    can.o(i.action_failed_send) refers to can.o(.bss) for .bss
    can.o(i.action_success_send) refers to can.o(i.one_can_frame_send) for one_can_frame_send
    can.o(i.action_success_send) refers to msd_test.o(.bss) for motor
    can.o(i.action_success_send) refers to can.o(.bss) for .bss
    can.o(i.action_value_send) refers to can.o(i.one_can_frame_send) for one_can_frame_send
    can.o(i.action_value_send) refers to can.o(.bss) for .bss
    can.o(i.action_value_send_none_80) refers to can.o(i.one_can_frame_send) for one_can_frame_send
    can.o(i.action_value_send_none_80) refers to can.o(.bss) for .bss
    can.o(i.can_mutil_frame_send) refers to stm32f4xx_can.o(i.CAN_ITConfig) for CAN_ITConfig
    can.o(i.can_mutil_frame_send) refers to can.o(i.poniter_add) for poniter_add
    can.o(i.can_mutil_frame_send) refers to can.o(i.poniter_plus_one) for poniter_plus_one
    can.o(i.can_mutil_frame_send) refers to memcpya.o(.text) for __aeabi_memcpy
    can.o(i.can_mutil_frame_send) refers to can.o(.ARM.__AT_0x10000010) for .ARM.__AT_0x10000010
    can.o(i.can_mutil_frame_send) refers to can.o(.ARM.__AT_0x10000218) for .ARM.__AT_0x10000218
    can.o(i.mission_failed_send) refers to can.o(i.one_can_frame_send) for one_can_frame_send
    can.o(i.mission_failed_send) refers to can.o(.bss) for .bss
    can.o(i.mission_success_send) refers to can.o(i.one_can_frame_send) for one_can_frame_send
    can.o(i.mission_success_send) refers to can.o(.bss) for .bss
    can.o(i.one_can_frame_send) refers to stm32f4xx_can.o(i.CAN_ITConfig) for CAN_ITConfig
    can.o(i.one_can_frame_send) refers to can.o(i.poniter_plus_one) for poniter_plus_one
    can.o(i.one_can_frame_send) refers to memcpya.o(.text) for __aeabi_memcpy
    can.o(i.one_can_frame_send) refers to can.o(.ARM.__AT_0x10000010) for .ARM.__AT_0x10000010
    can.o(i.one_can_frame_send) refers to can.o(.ARM.__AT_0x10000218) for .ARM.__AT_0x10000218
    can.o(i.parpareUSBframe) refers to can.o(.ARM.__AT_0x10000014) for .ARM.__AT_0x10000014
    can.o(i.parpareUSBframe) refers to can.o(.ARM.__AT_0x10000218) for .ARM.__AT_0x10000218
    can.o(i.poniter_add) refers to can.o(i.poniter_plus_one) for poniter_plus_one
    coder.o(i.EXTI0_IRQHandler) refers to stm32f4xx_exti.o(i.EXTI_ClearITPendingBit) for EXTI_ClearITPendingBit
    coder.o(i.EXTI0_IRQHandler) refers to coder.o(.data) for .data
    coder.o(i.EXTIX_Init) refers to coder.o(i.coder_gpio_init) for coder_gpio_init
    coder.o(i.EXTIX_Init) refers to stm32f4xx_rcc.o(i.RCC_APB2PeriphClockCmd) for RCC_APB2PeriphClockCmd
    coder.o(i.EXTIX_Init) refers to stm32f4xx_syscfg.o(i.SYSCFG_EXTILineConfig) for SYSCFG_EXTILineConfig
    coder.o(i.EXTIX_Init) refers to stm32f4xx_exti.o(i.EXTI_Init) for EXTI_Init
    coder.o(i.EXTIX_Init) refers to misc.o(i.NVIC_Init) for NVIC_Init
    coder.o(i.Encoder_Init_TIM2) refers to stm32f4xx_rcc.o(i.RCC_APB1PeriphClockCmd) for RCC_APB1PeriphClockCmd
    coder.o(i.Encoder_Init_TIM2) refers to stm32f4xx_gpio.o(i.GPIO_PinAFConfig) for GPIO_PinAFConfig
    coder.o(i.Encoder_Init_TIM2) refers to stm32f4xx_gpio.o(i.GPIO_Init) for GPIO_Init
    coder.o(i.Encoder_Init_TIM2) refers to stm32f4xx_tim.o(i.TIM_TimeBaseStructInit) for TIM_TimeBaseStructInit
    coder.o(i.Encoder_Init_TIM2) refers to stm32f4xx_tim.o(i.TIM_TimeBaseInit) for TIM_TimeBaseInit
    coder.o(i.Encoder_Init_TIM2) refers to stm32f4xx_tim.o(i.TIM_EncoderInterfaceConfig) for TIM_EncoderInterfaceConfig
    coder.o(i.Encoder_Init_TIM2) refers to stm32f4xx_tim.o(i.TIM_ICStructInit) for TIM_ICStructInit
    coder.o(i.Encoder_Init_TIM2) refers to stm32f4xx_tim.o(i.TIM_ICInit) for TIM_ICInit
    coder.o(i.Encoder_Init_TIM2) refers to stm32f4xx_tim.o(i.TIM_ClearFlag) for TIM_ClearFlag
    coder.o(i.Encoder_Init_TIM2) refers to stm32f4xx_tim.o(i.TIM_ITConfig) for TIM_ITConfig
    coder.o(i.Encoder_Init_TIM2) refers to stm32f4xx_tim.o(i.TIM_SetCounter) for TIM_SetCounter
    coder.o(i.Encoder_Init_TIM2) refers to stm32f4xx_tim.o(i.TIM_Cmd) for TIM_Cmd
    coder.o(i.coder_gpio_init) refers to stm32f4xx_rcc.o(i.RCC_AHB1PeriphClockCmd) for RCC_AHB1PeriphClockCmd
    coder.o(i.coder_gpio_init) refers to stm32f4xx_gpio.o(i.GPIO_Init) for GPIO_Init
    coder.o(i.configureEncoder) refers to stm32f4xx_rcc.o(i.RCC_APB1PeriphClockCmd) for RCC_APB1PeriphClockCmd
    coder.o(i.configureEncoder) refers to stm32f4xx_gpio.o(i.GPIO_PinAFConfig) for GPIO_PinAFConfig
    coder.o(i.configureEncoder) refers to stm32f4xx_gpio.o(i.GPIO_Init) for GPIO_Init
    coder.o(i.configureEncoder) refers to stm32f4xx_tim.o(i.TIM_TimeBaseStructInit) for TIM_TimeBaseStructInit
    coder.o(i.configureEncoder) refers to stm32f4xx_tim.o(i.TIM_TimeBaseInit) for TIM_TimeBaseInit
    coder.o(i.configureEncoder) refers to stm32f4xx_tim.o(i.TIM_EncoderInterfaceConfig) for TIM_EncoderInterfaceConfig
    coder.o(i.configureEncoder) refers to stm32f4xx_tim.o(i.TIM_ICStructInit) for TIM_ICStructInit
    coder.o(i.configureEncoder) refers to stm32f4xx_tim.o(i.TIM_ICInit) for TIM_ICInit
    coder.o(i.configureEncoder) refers to stm32f4xx_tim.o(i.TIM_ClearFlag) for TIM_ClearFlag
    coder.o(i.configureEncoder) refers to stm32f4xx_tim.o(i.TIM_ITConfig) for TIM_ITConfig
    coder.o(i.configureEncoder) refers to stm32f4xx_tim.o(i.TIM_SetCounter) for TIM_SetCounter
    coder.o(i.configureEncoder) refers to stm32f4xx_tim.o(i.TIM_Cmd) for TIM_Cmd
    microstepdriver.o(i.MSD_ENA) refers to stm32f4xx_gpio.o(i.GPIO_SetBits) for GPIO_SetBits
    microstepdriver.o(i.MSD_ENA) refers to stm32f4xx_gpio.o(i.GPIO_ResetBits) for GPIO_ResetBits
    microstepdriver.o(i.MSD_ENA) refers to printf8.o(i.__0printf$8) for __2printf
    microstepdriver.o(i.MSD_ENA) refers to microstepdriver.o(.data) for .data
    microstepdriver.o(i.MSD_ENA) refers to microstepdriver.o(.conststring) for .conststring
    microstepdriver.o(i.MSD_GPIO_Config) refers to stm32f4xx_rcc.o(i.RCC_AHB1PeriphClockCmd) for RCC_AHB1PeriphClockCmd
    microstepdriver.o(i.MSD_GPIO_Config) refers to stm32f4xx_gpio.o(i.GPIO_Init) for GPIO_Init
    microstepdriver.o(i.MSD_GPIO_Config) refers to stm32f4xx_gpio.o(i.GPIO_PinAFConfig) for GPIO_PinAFConfig
    microstepdriver.o(i.MSD_GPIO_Config) refers to stm32f4xx_gpio.o(i.GPIO_ResetBits) for GPIO_ResetBits
    microstepdriver.o(i.MSD_Init) refers to microstepdriver.o(i.MSD_GPIO_Config) for MSD_GPIO_Config
    microstepdriver.o(i.MSD_Init) refers to misc.o(i.NVIC_Init) for NVIC_Init
    microstepdriver.o(i.MSD_Init) refers to microstepdriver.o(i.TIM_Mode_Config) for TIM_Mode_Config
    microstepdriver.o(i.MSD_Move) refers to stm32f4xx_gpio.o(i.GPIO_SetBits) for GPIO_SetBits
    microstepdriver.o(i.MSD_Move) refers to stm32f4xx_gpio.o(i.GPIO_ResetBits) for GPIO_ResetBits
    microstepdriver.o(i.MSD_Move) refers to dfltui.o(.text) for __aeabi_ui2d
    microstepdriver.o(i.MSD_Move) refers to sqrt.o(i.__hardfp_sqrt) for __hardfp_sqrt
    microstepdriver.o(i.MSD_Move) refers to dmul.o(.text) for __aeabi_dmul
    microstepdriver.o(i.MSD_Move) refers to ddiv.o(.text) for __aeabi_ddiv
    microstepdriver.o(i.MSD_Move) refers to dfixui.o(.text) for __aeabi_d2uiz
    microstepdriver.o(i.MSD_Move) refers to microstepdriver.o(i.record_steps) for record_steps
    microstepdriver.o(i.MSD_Move) refers to stm32f4xx_tim.o(i.TIM_SetAutoreload) for TIM_SetAutoreload
    microstepdriver.o(i.MSD_Move) refers to stm32f4xx_tim.o(i.TIM_SetCompare2) for TIM_SetCompare2
    microstepdriver.o(i.MSD_Move) refers to stm32f4xx_tim.o(i.TIM_Cmd) for TIM_Cmd
    microstepdriver.o(i.MSD_Move) refers to stm32f4xx_tim.o(i.TIM_ITConfig) for TIM_ITConfig
    microstepdriver.o(i.MSD_Move) refers to microstepdriver.o(.bss) for .bss
    microstepdriver.o(i.MSD_Move) refers to microstepdriver.o(.data) for .data
    microstepdriver.o(i.MSD_StepCounter) refers to microstepdriver.o(.data) for .data
    microstepdriver.o(i.TIM2_IRQHandler) refers to stm32f4xx_tim.o(i.TIM_GetITStatus) for TIM_GetITStatus
    microstepdriver.o(i.TIM2_IRQHandler) refers to stm32f4xx_tim.o(i.TIM_ClearITPendingBit) for TIM_ClearITPendingBit
    microstepdriver.o(i.TIM2_IRQHandler) refers to stm32f4xx_tim.o(i.TIM_Cmd) for TIM_Cmd
    microstepdriver.o(i.TIM2_IRQHandler) refers to microstepdriver.o(i.record_position) for record_position
    microstepdriver.o(i.TIM2_IRQHandler) refers to microstepdriver.o(i.MSD_StepCounter) for MSD_StepCounter
    microstepdriver.o(i.TIM2_IRQHandler) refers to microstepdriver.o(i.get_steps) for get_steps
    microstepdriver.o(i.TIM2_IRQHandler) refers to microstepdriver.o(.bss) for .bss
    microstepdriver.o(i.TIM2_IRQHandler) refers to microstepdriver.o(.data) for .data
    microstepdriver.o(i.TIM_Mode_Config) refers to stm32f4xx_rcc.o(i.RCC_APB1PeriphClockCmd) for RCC_APB1PeriphClockCmd
    microstepdriver.o(i.TIM_Mode_Config) refers to stm32f4xx_tim.o(i.TIM_TimeBaseStructInit) for TIM_TimeBaseStructInit
    microstepdriver.o(i.TIM_Mode_Config) refers to stm32f4xx_tim.o(i.TIM_TimeBaseInit) for TIM_TimeBaseInit
    microstepdriver.o(i.TIM_Mode_Config) refers to stm32f4xx_tim.o(i.TIM_OC2Init) for TIM_OC2Init
    microstepdriver.o(i.TIM_Mode_Config) refers to stm32f4xx_tim.o(i.TIM_OC2PreloadConfig) for TIM_OC2PreloadConfig
    microstepdriver.o(i.TIM_Mode_Config) refers to stm32f4xx_tim.o(i.TIM_ARRPreloadConfig) for TIM_ARRPreloadConfig
    microstepdriver.o(i.TIM_Mode_Config) refers to stm32f4xx_tim.o(i.TIM_UpdateRequestConfig) for TIM_UpdateRequestConfig
    microstepdriver.o(i.TIM_Mode_Config) refers to stm32f4xx_tim.o(i.TIM_ClearITPendingBit) for TIM_ClearITPendingBit
    microstepdriver.o(i.TIM_Mode_Config) refers to stm32f4xx_tim.o(i.TIM_ITConfig) for TIM_ITConfig
    microstepdriver.o(i.TIM_Mode_Config) refers to stm32f4xx_tim.o(i.TIM_Cmd) for TIM_Cmd
    microstepdriver.o(i.get_steps) refers to microstepdriver.o(.bss) for .bss
    microstepdriver.o(i.record_position) refers to microstepdriver.o(i.get_steps) for get_steps
    microstepdriver.o(i.record_position) refers to microstepdriver.o(.bss) for .bss
    microstepdriver.o(i.record_steps) refers to microstepdriver.o(.data) for .data
    microstepdriver.o(i.record_steps) refers to microstepdriver.o(.bss) for .bss
    msd_test.o(i.MM_position) refers to msd_test.o(.bss) for .bss
    msd_test.o(i.angle) refers to dfltui.o(.text) for __aeabi_ui2d
    msd_test.o(i.angle) refers to dadd.o(.text) for __aeabi_drsub
    msd_test.o(i.angle) refers to d2f.o(.text) for __aeabi_d2f
    msd_test.o(i.motor_finish) refers to stm32fxxx_it.o(.data) for time
    msd_test.o(i.motor_finish) refers to msd_test.o(.bss) for .bss
    msd_test.o(i.motor_inject_offset_position) refers to msd_test.o(i.step_to_move_calc) for step_to_move_calc
    msd_test.o(i.motor_inject_offset_position) refers to msd_test.o(.bss) for .bss
    msd_test.o(i.motor_maintain_polling) refers to msd_test.o(i.motor_timeout_check) for motor_timeout_check
    msd_test.o(i.motor_maintain_polling) refers to msd_test.o(i.motor_timer_set) for motor_timer_set
    msd_test.o(i.motor_maintain_polling) refers to microstepdriver.o(i.MSD_Move) for MSD_Move
    msd_test.o(i.motor_maintain_polling) refers to msd_test.o(.bss) for .bss
    msd_test.o(i.motor_maintain_polling) refers to stm32fxxx_it.o(.data) for time
    msd_test.o(i.motor_maintain_polling) refers to microstepdriver.o(.bss) for srd
    msd_test.o(i.motor_move_polling) refers to can.o(i.action_success_send) for action_success_send
    msd_test.o(i.motor_move_polling) refers to msd_test.o(i.motor_finish) for motor_finish
    msd_test.o(i.motor_move_polling) refers to msd_test.o(i.move_to_position) for move_to_position
    msd_test.o(i.motor_move_polling) refers to msd_test.o(i.motor_timeout_check) for motor_timeout_check
    msd_test.o(i.motor_move_polling) refers to msd_test.o(.bss) for .bss
    msd_test.o(i.motor_move_polling) refers to microstepdriver.o(.bss) for srd
    msd_test.o(i.motor_move_polling) refers to stm32fxxx_it.o(.data) for time
    msd_test.o(i.motor_reset) refers to msd_test.o(i.motor_timeout_check) for motor_timeout_check
    msd_test.o(i.motor_reset) refers to cooler.o(i.power_off) for power_off
    msd_test.o(i.motor_reset) refers to can.o(i.action_failed_send) for action_failed_send
    msd_test.o(i.motor_reset) refers to msd_test.o(i.motor_finish) for motor_finish
    msd_test.o(i.motor_reset) refers to microstepdriver.o(i.MSD_Move) for MSD_Move
    msd_test.o(i.motor_reset) refers to msd_test.o(i.motor_timer_set) for motor_timer_set
    msd_test.o(i.motor_reset) refers to can.o(i.action_success_send) for action_success_send
    msd_test.o(i.motor_reset) refers to wwdg.o(.data) for _iwdg
    msd_test.o(i.motor_reset) refers to msd_test.o(.bss) for .bss
    msd_test.o(i.motor_reset) refers to microstepdriver.o(.bss) for srd
    msd_test.o(i.motor_reset) refers to cooler.o(.data) for power_off_state
    msd_test.o(i.motor_reset) refers to stm32fxxx_it.o(.data) for time
    msd_test.o(i.motor_reset) refers to coder.o(.data) for coder_init_count
    msd_test.o(i.motor_shocking) refers to msd_test.o(i.motor_timer_set) for motor_timer_set
    msd_test.o(i.motor_shocking) refers to msd_test.o(i.motor_timeout_check) for motor_timeout_check
    msd_test.o(i.motor_shocking) refers to microstepdriver.o(i.MSD_Move) for MSD_Move
    msd_test.o(i.motor_shocking) refers to msd_test.o(.bss) for .bss
    msd_test.o(i.motor_shocking) refers to stm32fxxx_it.o(.data) for time
    msd_test.o(i.motor_shocking) refers to microstepdriver.o(.bss) for srd
    msd_test.o(i.motor_timeout_check) refers to can.o(i.action_value_send_none_80) for action_value_send_none_80
    msd_test.o(i.motor_timeout_check) refers to microstepdriver.o(i.MSD_Init) for MSD_Init
    msd_test.o(i.motor_timeout_check) refers to msd_test.o(.bss) for .bss
    msd_test.o(i.motor_timeout_check) refers to stm32fxxx_it.o(.data) for time
    msd_test.o(i.motor_timeout_check) refers to microstepdriver.o(.bss) for srd
    msd_test.o(i.motor_timer_set) refers to stm32fxxx_it.o(.data) for time
    msd_test.o(i.motor_timer_set) refers to msd_test.o(.bss) for .bss
    msd_test.o(i.move_to_position) refers to microstepdriver.o(i.MSD_Move) for MSD_Move
    msd_test.o(i.move_to_position) refers to msd_test.o(i.motor_timer_set) for motor_timer_set
    msd_test.o(i.move_to_position) refers to microstepdriver.o(.bss) for srd
    msd_test.o(i.step_to_move_calc) refers to dfltui.o(.text) for __aeabi_ui2d
    msd_test.o(i.step_to_move_calc) refers to dadd.o(.text) for __aeabi_dadd
    msd_test.o(i.step_to_move_calc) refers to d2f.o(.text) for __aeabi_d2f
    one_dimension_code.o(i.one_dimension_code_init) refers to tm_stm32f4_gpio.o(i.TM_GPIO_Init) for TM_GPIO_Init
    one_dimension_code.o(i.one_dimension_code_init) refers to tm_stm32f4_usart.o(i.TM_USART_Init) for TM_USART_Init
    one_dimension_code.o(i.one_dimension_code_init) refers to tm_stm32f4_usart_dma.o(i.TM_USART_DMA_Init) for TM_USART_DMA_Init
    one_dimension_code.o(i.one_dimension_code_init) refers to one_dimension_code.o(.bss) for .bss
    one_dimension_code.o(i.one_dimension_code_mission_polling) refers to one_dimension_code.o(i.one_dimension_code_read) for one_dimension_code_read
    one_dimension_code.o(i.one_dimension_code_mission_polling) refers to buzzer.o(i.buzzer_mission) for buzzer_mission
    one_dimension_code.o(i.one_dimension_code_mission_polling) refers to can.o(i.mission_success_send) for mission_success_send
    one_dimension_code.o(i.one_dimension_code_mission_polling) refers to can.o(i.can_mutil_frame_send) for can_mutil_frame_send
    one_dimension_code.o(i.one_dimension_code_mission_polling) refers to one_dimension_code.o(.bss) for .bss
    one_dimension_code.o(i.one_dimension_code_mission_polling) refers to stm32fxxx_it.o(.data) for time
    one_dimension_code.o(i.one_dimension_code_read) refers to tm_stm32f4_usart.o(i.TM_USART_Gets) for TM_USART_Gets
    one_dimension_code.o(i.one_dimension_code_read) refers to one_dimension_code.o(.bss) for .bss
    usart_screen.o(i.parpare_buffer) refers to printf8.o(i.__0sprintf$8) for __2sprintf
    usart_screen.o(i.parpare_buffer) refers to usart_screen.o(.bss) for .bss
    usart_screen.o(i.parpare_buffer) refers to usart_screen.o(.data) for .data
    usart_screen.o(i.su_mission_polling) refers to printf8.o(i.__0sprintf$8) for __2sprintf
    usart_screen.o(i.su_mission_polling) refers to usart_screen.o(i.parpare_buffer) for parpare_buffer
    usart_screen.o(i.su_mission_polling) refers to tm_stm32f4_usart_dma.o(i.TM_USART_DMA_Send) for TM_USART_DMA_Send
    usart_screen.o(i.su_mission_polling) refers to tm_stm32f4_usart.o(i.TM_USART_Gets) for TM_USART_Gets
    usart_screen.o(i.su_mission_polling) refers to can.o(i.mission_failed_send) for mission_failed_send
    usart_screen.o(i.su_mission_polling) refers to can.o(i.mission_success_send) for mission_success_send
    usart_screen.o(i.su_mission_polling) refers to usart_screen.o(.bss) for .bss
    usart_screen.o(i.su_mission_polling) refers to stm32fxxx_it.o(.data) for time
    stmflash.o(i.STMFLASH_Write) refers to stm32f4xx_flash.o(i.FLASH_Unlock) for FLASH_Unlock
    stmflash.o(i.STMFLASH_Write) refers to stmflash.o(i.STMFLASH_GetFlashSector) for STMFLASH_GetFlashSector
    stmflash.o(i.STMFLASH_Write) refers to stm32f4xx_flash.o(i.FLASH_EraseSector) for FLASH_EraseSector
    stmflash.o(i.STMFLASH_Write) refers to stm32f4xx_flash.o(i.FLASH_ProgramWord) for FLASH_ProgramWord
    stmflash.o(i.STMFLASH_Write) refers to stm32f4xx_flash.o(i.FLASH_Lock) for FLASH_Lock
    stmflash.o(i.flash_get_para) refers to stmflash.o(.bss) for .bss
    stmflash.o(i.flash_init) refers to stmflash.o(i.STMFLASH_Read) for STMFLASH_Read
    stmflash.o(i.flash_init) refers to stmflash.o(.bss) for .bss
    stmflash.o(i.flash_mission_polling) refers to stmflash.o(i.offset_calc) for offset_calc
    stmflash.o(i.flash_mission_polling) refers to stmflash.o(i.STMFLASH_Write) for STMFLASH_Write
    stmflash.o(i.flash_mission_polling) refers to stmflash.o(i.stmflash_read_reverse) for stmflash_read_reverse
    stmflash.o(i.flash_mission_polling) refers to can.o(i.mission_success_send) for mission_success_send
    stmflash.o(i.flash_mission_polling) refers to can.o(i.action_value_send) for action_value_send
    stmflash.o(i.flash_mission_polling) refers to stmflash.o(.bss) for .bss
    stmflash.o(i.flash_mission_polling) refers to stmflash.o(.data) for .data
    stmflash.o(i.offset_calc) refers to msd_test.o(i.angle) for angle
    stmflash.o(i.offset_calc) refers to stmflash.o(.bss) for .bss
    stmflash.o(i.offset_calc) refers to msd_test.o(.bss) for motor
    stmflash.o(i.position_init_to_flash) refers to msd_test.o(i.step_to_move_calc) for step_to_move_calc
    stmflash.o(i.position_init_to_flash) refers to stmflash.o(.bss) for .bss
    stmflash.o(i.stmflash_read_reverse) refers to stmflash.o(i.STMFLASH_Read) for STMFLASH_Read
    buzzer.o(i.BUZZER_Init) refers to stm32f4xx_rcc.o(i.RCC_AHB1PeriphClockCmd) for RCC_AHB1PeriphClockCmd
    buzzer.o(i.BUZZER_Init) refers to stm32f4xx_gpio.o(i.GPIO_Init) for GPIO_Init
    buzzer.o(i.BUZZER_Init) refers to stm32f4xx_gpio.o(i.GPIO_ResetBits) for GPIO_ResetBits
    buzzer.o(i.BUZZER_mission_polling) refers to stm32f4xx_gpio.o(i.GPIO_ResetBits) for GPIO_ResetBits
    buzzer.o(i.BUZZER_mission_polling) refers to stm32f4xx_gpio.o(i.GPIO_SetBits) for GPIO_SetBits
    buzzer.o(i.BUZZER_mission_polling) refers to buzzer.o(.bss) for .bss
    buzzer.o(i.BUZZER_mission_polling) refers to stm32fxxx_it.o(.data) for time
    buzzer.o(i.buzzer_mission) refers to buzzer.o(.bss) for .bss
    notification.o(i.LED1_OFF) refers to stm32f4xx_gpio.o(i.GPIO_SetBits) for GPIO_SetBits
    notification.o(i.LED1_ON) refers to stm32f4xx_gpio.o(i.GPIO_ResetBits) for GPIO_ResetBits
    notification.o(i.LED1_init) refers to stm32f4xx_rcc.o(i.RCC_AHB1PeriphClockCmd) for RCC_AHB1PeriphClockCmd
    notification.o(i.LED1_init) refers to stm32f4xx_gpio.o(i.GPIO_Init) for GPIO_Init
    notification.o(i.LED1_init) refers to notification.o(i.LED1_OFF) for LED1_OFF
    notification.o(i.LED1_init) refers to notification.o(i.LED1_ON) for LED1_ON
    notification.o(i.LED_OFF) refers to stm32f4xx_gpio.o(i.GPIO_SetBits) for GPIO_SetBits
    notification.o(i.LED_ON) refers to stm32f4xx_gpio.o(i.GPIO_ResetBits) for GPIO_ResetBits
    notification.o(i.LED_TOGGLE) refers to stm32f4xx_gpio.o(i.GPIO_ReadOutputDataBit) for GPIO_ReadOutputDataBit
    notification.o(i.LED_TOGGLE) refers to stm32f4xx_gpio.o(i.GPIO_WriteBit) for GPIO_WriteBit
    notification.o(i.LED_init) refers to stm32f4xx_rcc.o(i.RCC_AHB1PeriphClockCmd) for RCC_AHB1PeriphClockCmd
    notification.o(i.LED_init) refers to stm32f4xx_gpio.o(i.GPIO_Init) for GPIO_Init
    notification.o(i.LED_init) refers to notification.o(i.LED_OFF) for LED_OFF
    notification.o(i.led_mission_polling) refers to notification.o(i.LED_OFF) for LED_OFF
    notification.o(i.led_mission_polling) refers to notification.o(i.LED_ON) for LED_ON
    notification.o(i.led_mission_polling) refers to notification.o(.bss) for .bss
    notification.o(i.led_mission_polling) refers to stm32fxxx_it.o(.data) for time
    notification.o(i.led_to_notification) refers to notification.o(.bss) for .bss
    mission.o(i.mission_polling) refers to msd_test.o(i.motor_timer_set) for motor_timer_set
    mission.o(i.mission_polling) refers to msd_test.o(i.motor_inject_offset_position) for motor_inject_offset_position
    mission.o(i.mission_polling) refers to can.o(i.action_success_send) for action_success_send
    mission.o(i.mission_polling) refers to msd_test.o(i.MM_position) for MM_position
    mission.o(i.mission_polling) refers to cooler.o(i.cooler_on) for cooler_on
    mission.o(i.mission_polling) refers to cooler.o(i.cooler_off) for cooler_off
    mission.o(i.mission_polling) refers to cooler.o(i.power_on) for power_on
    mission.o(i.mission_polling) refers to stm32f4xx_tim.o(i.TIM_Cmd) for TIM_Cmd
    mission.o(i.mission_polling) refers to microstepdriver.o(i.MSD_Init) for MSD_Init
    mission.o(i.mission_polling) refers to cooler.o(i.power_off) for power_off
    mission.o(i.mission_polling) refers to mission.o(i.timer_reset) for timer_reset
    mission.o(i.mission_polling) refers to can.o(i.mission_success_send) for mission_success_send
    mission.o(i.mission_polling) refers to printf8.o(i.__0sprintf$8) for __2sprintf
    mission.o(i.mission_polling) refers to can.o(i.action_value_send_none_80) for action_value_send_none_80
    mission.o(i.mission_polling) refers to notification.o(i.LED1_ON) for LED1_ON
    mission.o(i.mission_polling) refers to notification.o(i.LED1_OFF) for LED1_OFF
    mission.o(i.mission_polling) refers to temp_control.o(i.reser_screen) for reser_screen
    mission.o(i.mission_polling) refers to wwdg.o(.data) for _iwdg
    mission.o(i.mission_polling) refers to usbd_cdc_core.o(.bss) for USB_Rx_Buffer
    mission.o(i.mission_polling) refers to msd_test.o(.bss) for motor
    mission.o(i.mission_polling) refers to temp_control.o(.data) for lm75_status
    mission.o(i.mission_polling) refers to stmflash.o(.bss) for fmt
    mission.o(i.mission_polling) refers to temp_control.o(.bss) for lm35_t
    mission.o(i.mission_polling) refers to cooler.o(.data) for power_off_state
    mission.o(i.mission_polling) refers to mission.o(.data) for .data
    mission.o(i.mission_polling) refers to microstepdriver.o(.bss) for srd
    mission.o(i.mission_polling) refers to usart_screen.o(.data) for rct_t
    mission.o(i.mission_polling) refers to usart_screen.o(.bss) for sut
    mission.o(i.mission_polling) refers to cooler.o(.data) for cooler_received_command
    mission.o(i.mission_polling) refers to can.o(.ARM.__AT_0x10000000) for temp_control
    mission.o(i.mission_polling) refers to mission.o(.ARM.__AT_0x10000018) for .ARM.__AT_0x10000018
    mission.o(i.mission_polling) refers to can.o(.ARM.__AT_0x10000004) for power_satus
    mission.o(i.mission_polling) refers to usbd_cdc_core.o(.data) for USB_ReceivedCount
    mission.o(i.mission_polling) refers to one_dimension_code.o(.bss) for odc
    mission.o(i.mission_polling) refers to can.o(.bss) for mission_state
    mission.o(i.timer_reset) refers to stm32fxxx_it.o(.data) for time
    mission.o(i.timer_reset) refers to msd_test.o(.bss) for motor
    mission.o(i.timer_reset) refers to temp_control.o(.bss) for lm35_t
    mission.o(i.timer_reset) refers to usart_screen.o(.bss) for sut
    mission.o(i.timer_reset) refers to buzzer.o(.bss) for buzzer
    mission.o(i.timer_reset) refers to one_dimension_code.o(.bss) for odc
    mission.o(i.timer_reset) refers to temp_control.o(.data) for gobal_temp_flag
    mission.o(i.timer_reset) refers to notification.o(.bss) for lmt
    mission.o(i.timer_reset) refers to mission.o(.data) for .data
    mission.o(i.timer_reset) refers to can.o(.bss) for mission_state
    cooler.o(i.close_inter_fan) refers to stm32f4xx_gpio.o(i.GPIO_SetBits) for GPIO_SetBits
    cooler.o(i.cooler_init) refers to stm32f4xx_rcc.o(i.RCC_AHB1PeriphClockCmd) for RCC_AHB1PeriphClockCmd
    cooler.o(i.cooler_init) refers to stm32f4xx_gpio.o(i.GPIO_Init) for GPIO_Init
    cooler.o(i.cooler_init) refers to cooler.o(i.cooler_off) for cooler_off
    cooler.o(i.cooler_off) refers to stm32f4xx_gpio.o(i.GPIO_SetBits) for GPIO_SetBits
    cooler.o(i.cooler_off) refers to notification.o(i.LED_OFF) for LED_OFF
    cooler.o(i.cooler_off) refers to temp_control.o(.bss) for lm35_t
    cooler.o(i.cooler_off) refers to stm32fxxx_it.o(.data) for time
    cooler.o(i.cooler_on) refers to stm32f4xx_gpio.o(i.GPIO_ResetBits) for GPIO_ResetBits
    cooler.o(i.cooler_on) refers to cooler.o(i.open_inter_fan) for open_inter_fan
    cooler.o(i.cooler_on) refers to notification.o(i.LED_ON) for LED_ON
    cooler.o(i.cooler_on) refers to temp_control.o(.bss) for lm35_t
    cooler.o(i.cooler_pwm_mission) refers to cooler.o(i.cooler_off) for cooler_off
    cooler.o(i.cooler_pwm_mission) refers to stmflash.o(i.flash_get_para) for flash_get_para
    cooler.o(i.cooler_pwm_mission) refers to cooler.o(i.cooler_on) for cooler_on
    cooler.o(i.cooler_pwm_mission) refers to temp_control.o(.bss) for lm35_t
    cooler.o(i.cooler_pwm_mission) refers to stm32fxxx_it.o(.data) for time
    cooler.o(i.open_inter_fan) refers to stm32f4xx_gpio.o(i.GPIO_ResetBits) for GPIO_ResetBits
    cooler.o(i.power_init) refers to stm32f4xx_rcc.o(i.RCC_AHB1PeriphClockCmd) for RCC_AHB1PeriphClockCmd
    cooler.o(i.power_init) refers to stm32f4xx_gpio.o(i.GPIO_Init) for GPIO_Init
    cooler.o(i.power_init) refers to cooler.o(i.power_on) for power_on
    cooler.o(i.power_off) refers to stm32f4xx_gpio.o(i.GPIO_SetBits) for GPIO_SetBits
    cooler.o(i.power_off) refers to notification.o(i.LED_OFF) for LED_OFF
    cooler.o(i.power_on) refers to stm32f4xx_gpio.o(i.GPIO_ResetBits) for GPIO_ResetBits
    cooler.o(i.power_on) refers to notification.o(i.LED_ON) for LED_ON
    adc.o(i.Adc_Init) refers to stm32f4xx_rcc.o(i.RCC_AHB1PeriphClockCmd) for RCC_AHB1PeriphClockCmd
    adc.o(i.Adc_Init) refers to stm32f4xx_rcc.o(i.RCC_APB2PeriphClockCmd) for RCC_APB2PeriphClockCmd
    adc.o(i.Adc_Init) refers to stm32f4xx_gpio.o(i.GPIO_Init) for GPIO_Init
    adc.o(i.Adc_Init) refers to stm32f4xx_rcc.o(i.RCC_APB2PeriphResetCmd) for RCC_APB2PeriphResetCmd
    adc.o(i.Adc_Init) refers to stm32f4xx_adc.o(i.ADC_CommonInit) for ADC_CommonInit
    adc.o(i.Adc_Init) refers to stm32f4xx_adc.o(i.ADC_Init) for ADC_Init
    adc.o(i.Adc_Init) refers to stm32f4xx_adc.o(i.ADC_Cmd) for ADC_Cmd
    adc.o(i.Get_Adc) refers to stm32f4xx_adc.o(i.ADC_RegularChannelConfig) for ADC_RegularChannelConfig
    adc.o(i.Get_Adc) refers to stm32f4xx_adc.o(i.ADC_SoftwareStartConv) for ADC_SoftwareStartConv
    adc.o(i.Get_Adc) refers to stm32f4xx_adc.o(i.ADC_GetFlagStatus) for ADC_GetFlagStatus
    adc.o(i.Get_Adc) refers to stm32f4xx_adc.o(i.ADC_GetConversionValue) for ADC_GetConversionValue
    adc.o(i.Get_Adc_Average) refers to adc.o(i.Get_Adc) for Get_Adc
    adc.o(i.Get_Adc_v) refers to stm32f4xx_adc.o(i.ADC_RegularChannelConfig) for ADC_RegularChannelConfig
    adc.o(i.Get_Adc_v) refers to stm32f4xx_adc.o(i.ADC_SoftwareStartConv) for ADC_SoftwareStartConv
    adc.o(i.Get_Adc_v) refers to stm32f4xx_adc.o(i.ADC_GetFlagStatus) for ADC_GetFlagStatus
    adc.o(i.Get_Adc_v) refers to stm32f4xx_adc.o(i.ADC_GetConversionValue) for ADC_GetConversionValue
    b3470.o(i.adc_value_conv_temperature) refers to b3470.o(.data) for .data
    b3470.o(i.adc_value_filter) refers to b3470.o(i.adc_value_get) for adc_value_get
    b3470.o(i.adc_value_get) refers to stm32f4xx_adc.o(i.ADC_RegularChannelConfig) for ADC_RegularChannelConfig
    b3470.o(i.adc_value_get) refers to stm32f4xx_adc.o(i.ADC_SoftwareStartConv) for ADC_SoftwareStartConv
    b3470.o(i.adc_value_get) refers to stm32f4xx_adc.o(i.ADC_GetFlagStatus) for ADC_GetFlagStatus
    b3470.o(i.adc_value_get) refers to stm32f4xx_adc.o(i.ADC_GetConversionValue) for ADC_GetConversionValue
    b3470.o(i.b3470_get_temperature) refers to b3470.o(i.adc_value_filter) for adc_value_filter
    b3470.o(i.b3470_get_temperature) refers to b3470.o(i.adc_value_conv_temperature) for adc_value_conv_temperature
    b3470.o(i.b3470_get_temperature_offset) refers to b3470.o(i.adc_value_filter) for adc_value_filter
    b3470.o(i.b3470_get_temperature_offset) refers to b3470.o(i.adc_value_conv_temperature) for adc_value_conv_temperature
    b3470.o(i.b3470_get_temperature_offset) refers to stmflash.o(i.flash_get_para) for flash_get_para
    b3470.o(i.b3470_init) refers to stm32f4xx_rcc.o(i.RCC_AHB1PeriphClockCmd) for RCC_AHB1PeriphClockCmd
    b3470.o(i.b3470_init) refers to stm32f4xx_rcc.o(i.RCC_APB2PeriphClockCmd) for RCC_APB2PeriphClockCmd
    b3470.o(i.b3470_init) refers to stm32f4xx_gpio.o(i.GPIO_Init) for GPIO_Init
    b3470.o(i.b3470_init) refers to stm32f4xx_rcc.o(i.RCC_APB2PeriphResetCmd) for RCC_APB2PeriphResetCmd
    b3470.o(i.b3470_init) refers to stm32f4xx_adc.o(i.ADC_CommonInit) for ADC_CommonInit
    b3470.o(i.b3470_init) refers to stm32f4xx_adc.o(i.ADC_Init) for ADC_Init
    b3470.o(i.b3470_init) refers to stm32f4xx_adc.o(i.ADC_Cmd) for ADC_Cmd
    temp_control.o(i.LM75_parpare_buffer) refers to printf8.o(i.__0sprintf$8) for __2sprintf
    temp_control.o(i.LM75_parpare_buffer) refers to temp_control.o(.bss) for .bss
    temp_control.o(i.lm75a_mission_polling) refers to can.o(i.mission_failed_send) for mission_failed_send
    temp_control.o(i.lm75a_mission_polling) refers to stmflash.o(i.flash_get_para) for flash_get_para
    temp_control.o(i.lm75a_mission_polling) refers to b3470.o(i.b3470_get_temperature_offset) for b3470_get_temperature_offset
    temp_control.o(i.lm75a_mission_polling) refers to can.o(i.one_can_frame_send) for one_can_frame_send
    temp_control.o(i.lm75a_mission_polling) refers to temp_control.o(.data) for .data
    temp_control.o(i.lm75a_mission_polling) refers to temp_control.o(.bss) for .bss
    temp_control.o(i.lm75a_mission_polling) refers to can.o(.bss) for mission_state
    temp_control.o(i.lm75a_temp_read_polling) refers to adc.o(i.Get_Adc_Average) for Get_Adc_Average
    temp_control.o(i.lm75a_temp_read_polling) refers to temp_control.o(i.temp_faded) for temp_faded
    temp_control.o(i.lm75a_temp_read_polling) refers to buzzer.o(i.buzzer_mission) for buzzer_mission
    temp_control.o(i.lm75a_temp_read_polling) refers to cooler.o(i.close_inter_fan) for close_inter_fan
    temp_control.o(i.lm75a_temp_read_polling) refers to b3470.o(i.b3470_get_temperature_offset) for b3470_get_temperature_offset
    temp_control.o(i.lm75a_temp_read_polling) refers to stmflash.o(i.flash_get_para) for flash_get_para
    temp_control.o(i.lm75a_temp_read_polling) refers to cooler.o(i.cooler_off) for cooler_off
    temp_control.o(i.lm75a_temp_read_polling) refers to cooler.o(i.cooler_on) for cooler_on
    temp_control.o(i.lm75a_temp_read_polling) refers to temp_control.o(.bss) for .bss
    temp_control.o(i.lm75a_temp_read_polling) refers to stm32fxxx_it.o(.data) for time
    temp_control.o(i.reser_screen) refers to printf8.o(i.__0sprintf$8) for __2sprintf
    temp_control.o(i.reser_screen) refers to tm_stm32f4_usart_dma.o(i.TM_USART_DMA_Send) for TM_USART_DMA_Send
    temp_control.o(i.reser_screen) refers to temp_control.o(.bss) for .bss
    temp_control.o(i.temp_display_mission) refers to temp_control.o(i.LM75_parpare_buffer) for LM75_parpare_buffer
    temp_control.o(i.temp_display_mission) refers to printf8.o(i.__0sprintf$8) for __2sprintf
    temp_control.o(i.temp_display_mission) refers to tm_stm32f4_usart_dma.o(i.TM_USART_DMA_Send) for TM_USART_DMA_Send
    temp_control.o(i.temp_display_mission) refers to can.o(i.mission_failed_send) for mission_failed_send
    temp_control.o(i.temp_display_mission) refers to tm_stm32f4_usart.o(i.TM_USART_Gets) for TM_USART_Gets
    temp_control.o(i.temp_display_mission) refers to can.o(i.mission_success_send) for mission_success_send
    temp_control.o(i.temp_display_mission) refers to stmflash.o(i.flash_get_para) for flash_get_para
    temp_control.o(i.temp_display_mission) refers to temp_control.o(.bss) for .bss
    temp_control.o(i.temp_display_mission) refers to usart_screen.o(.bss) for sut
    temp_control.o(i.temp_display_mission) refers to stm32fxxx_it.o(.data) for time
    temp_control.o(i.temp_display_mission) refers to mission.o(.ARM.__AT_0x10000018) for usart_state
    temp_control.o(i.temp_faded) refers to temp_control.o(.data) for .data
    wwdg.o(i.system_attribute_init) refers to can.o(.ARM.__AT_0x10000008) for USBRxCanBufferIndex
    wwdg.o(i.system_attribute_init) refers to can.o(.ARM.__AT_0x1000000C) for USBRxIndex
    wwdg.o(i.system_attribute_init) refers to can.o(.ARM.__AT_0x10000010) for canRxMsgBufferIndex
    wwdg.o(i.system_attribute_init) refers to can.o(.ARM.__AT_0x10000014) for canRxIndex
    wwdg.o(i.system_attribute_init) refers to can.o(.ARM.__AT_0x10000004) for power_satus
    wwdg.o(i.system_attribute_init) refers to can.o(.ARM.__AT_0x10000000) for temp_control
    wwdg.o(i.system_attribute_init) refers to mission.o(.ARM.__AT_0x10000018) for usart_state
    wwdg.o(i.watch_dog_recovery) refers to cooler.o(i.power_on) for power_on
    wwdg.o(i.watch_dog_recovery) refers to cooler.o(i.power_off) for power_off
    wwdg.o(i.watch_dog_recovery) refers to cooler.o(i.cooler_off) for cooler_off
    wwdg.o(i.watch_dog_recovery) refers to can.o(i.mission_failed_send) for mission_failed_send
    wwdg.o(i.watch_dog_recovery) refers to can.o(.ARM.__AT_0x10000004) for power_satus
    wwdg.o(i.watch_dog_recovery) refers to cooler.o(.data) for power_off_state
    wwdg.o(i.watch_dog_recovery) refers to can.o(.ARM.__AT_0x10000000) for temp_control
    wwdg.o(i.watch_dog_recovery) refers to temp_control.o(.bss) for lm35_t
    wwdg.o(i.watch_dog_recovery) refers to stm32fxxx_it.o(.data) for time
    wwdg.o(i.watch_dog_recovery) refers to wwdg.o(.data) for .data
    wwdg.o(.data) refers to wwdg.o(i.wdg_flag_set) for wdg_flag_set
    wwdg.o(.data) refers to wwdg.o(i.wdg_flag_clear) for wdg_flag_clear
    wwdg.o(.data) refers to wwdg.o(i.wdg_motor_mission_set) for wdg_motor_mission_set
    wwdg.o(.data) refers to wwdg.o(i.wdg_motor_mission_recovery) for wdg_motor_mission_recovery
    system_stm32f4xx.o(i.SystemCoreClockUpdate) refers to system_stm32f4xx.o(.data) for .data
    system_stm32f4xx.o(i.SystemInit) refers to system_stm32f4xx.o(i.SetSysClock) for SetSysClock
    startup_stm32f40_41xxx.o(RESET) refers to startup_stm32f40_41xxx.o(STACK) for __initial_sp
    startup_stm32f40_41xxx.o(RESET) refers to startup_stm32f40_41xxx.o(.text) for Reset_Handler
    startup_stm32f40_41xxx.o(RESET) refers to stm32fxxx_it.o(i.NMI_Handler) for NMI_Handler
    startup_stm32f40_41xxx.o(RESET) refers to stm32fxxx_it.o(i.HardFault_Handler) for HardFault_Handler
    startup_stm32f40_41xxx.o(RESET) refers to stm32fxxx_it.o(i.MemManage_Handler) for MemManage_Handler
    startup_stm32f40_41xxx.o(RESET) refers to stm32fxxx_it.o(i.BusFault_Handler) for BusFault_Handler
    startup_stm32f40_41xxx.o(RESET) refers to stm32fxxx_it.o(i.UsageFault_Handler) for UsageFault_Handler
    startup_stm32f40_41xxx.o(RESET) refers to stm32fxxx_it.o(i.SVC_Handler) for SVC_Handler
    startup_stm32f40_41xxx.o(RESET) refers to stm32fxxx_it.o(i.DebugMon_Handler) for DebugMon_Handler
    startup_stm32f40_41xxx.o(RESET) refers to stm32fxxx_it.o(i.PendSV_Handler) for PendSV_Handler
    startup_stm32f40_41xxx.o(RESET) refers to stm32fxxx_it.o(i.SysTick_Handler) for SysTick_Handler
    startup_stm32f40_41xxx.o(RESET) refers to coder.o(i.EXTI0_IRQHandler) for EXTI0_IRQHandler
    startup_stm32f40_41xxx.o(RESET) refers to tm_stm32f4_dma.o(i.DMA1_Stream0_IRQHandler) for DMA1_Stream0_IRQHandler
    startup_stm32f40_41xxx.o(RESET) refers to tm_stm32f4_dma.o(i.DMA1_Stream1_IRQHandler) for DMA1_Stream1_IRQHandler
    startup_stm32f40_41xxx.o(RESET) refers to tm_stm32f4_dma.o(i.DMA1_Stream2_IRQHandler) for DMA1_Stream2_IRQHandler
    startup_stm32f40_41xxx.o(RESET) refers to tm_stm32f4_dma.o(i.DMA1_Stream3_IRQHandler) for DMA1_Stream3_IRQHandler
    startup_stm32f40_41xxx.o(RESET) refers to tm_stm32f4_dma.o(i.DMA1_Stream4_IRQHandler) for DMA1_Stream4_IRQHandler
    startup_stm32f40_41xxx.o(RESET) refers to tm_stm32f4_dma.o(i.DMA1_Stream5_IRQHandler) for DMA1_Stream5_IRQHandler
    startup_stm32f40_41xxx.o(RESET) refers to tm_stm32f4_dma.o(i.DMA1_Stream6_IRQHandler) for DMA1_Stream6_IRQHandler
    startup_stm32f40_41xxx.o(RESET) refers to can.o(i.CAN1_RX0_IRQHandler) for CAN1_RX0_IRQHandler
    startup_stm32f40_41xxx.o(RESET) refers to microstepdriver.o(i.TIM2_IRQHandler) for TIM2_IRQHandler
    startup_stm32f40_41xxx.o(RESET) refers to tm_stm32f4_usart.o(i.USART1_IRQHandler) for USART1_IRQHandler
    startup_stm32f40_41xxx.o(RESET) refers to tm_stm32f4_usart.o(i.USART2_IRQHandler) for USART2_IRQHandler
    startup_stm32f40_41xxx.o(RESET) refers to tm_stm32f4_usart.o(i.USART3_IRQHandler) for USART3_IRQHandler
    startup_stm32f40_41xxx.o(RESET) refers to tm_stm32f4_dma.o(i.DMA1_Stream7_IRQHandler) for DMA1_Stream7_IRQHandler
    startup_stm32f40_41xxx.o(RESET) refers to tm_stm32f4_usart.o(i.UART4_IRQHandler) for UART4_IRQHandler
    startup_stm32f40_41xxx.o(RESET) refers to tm_stm32f4_usart.o(i.UART5_IRQHandler) for UART5_IRQHandler
    startup_stm32f40_41xxx.o(RESET) refers to tm_stm32f4_dma.o(i.DMA2_Stream1_IRQHandler) for DMA2_Stream1_IRQHandler
    startup_stm32f40_41xxx.o(RESET) refers to tm_stm32f4_dma.o(i.DMA2_Stream2_IRQHandler) for DMA2_Stream2_IRQHandler
    startup_stm32f40_41xxx.o(RESET) refers to tm_stm32f4_dma.o(i.DMA2_Stream3_IRQHandler) for DMA2_Stream3_IRQHandler
    startup_stm32f40_41xxx.o(RESET) refers to tm_stm32f4_dma.o(i.DMA2_Stream4_IRQHandler) for DMA2_Stream4_IRQHandler
    startup_stm32f40_41xxx.o(RESET) refers to tm_stm32f4_dma.o(i.DMA2_Stream5_IRQHandler) for DMA2_Stream5_IRQHandler
    startup_stm32f40_41xxx.o(RESET) refers to tm_stm32f4_dma.o(i.DMA2_Stream6_IRQHandler) for DMA2_Stream6_IRQHandler
    startup_stm32f40_41xxx.o(RESET) refers to tm_stm32f4_dma.o(i.DMA2_Stream7_IRQHandler) for DMA2_Stream7_IRQHandler
    startup_stm32f40_41xxx.o(RESET) refers to tm_stm32f4_usart.o(i.USART6_IRQHandler) for USART6_IRQHandler
    startup_stm32f40_41xxx.o(RESET) refers to stm32fxxx_it.o(i.OTG_HS_EP1_OUT_IRQHandler) for OTG_HS_EP1_OUT_IRQHandler
    startup_stm32f40_41xxx.o(RESET) refers to stm32fxxx_it.o(i.OTG_HS_EP1_IN_IRQHandler) for OTG_HS_EP1_IN_IRQHandler
    startup_stm32f40_41xxx.o(RESET) refers to stm32fxxx_it.o(i.OTG_HS_WKUP_IRQHandler) for OTG_HS_WKUP_IRQHandler
    startup_stm32f40_41xxx.o(RESET) refers to stm32fxxx_it.o(i.OTG_HS_IRQHandler) for OTG_HS_IRQHandler
    startup_stm32f40_41xxx.o(.text) refers to system_stm32f4xx.o(i.SystemInit) for SystemInit
    startup_stm32f40_41xxx.o(.text) refers to entry.o(.ARM.Collect$$$$00000000) for __main
    tm_stm32f4_dma.o(i.DMA1_Stream0_IRQHandler) refers to tm_stm32f4_dma.o(i.TM_DMA_INT_ProcessInterrupt) for TM_DMA_INT_ProcessInterrupt
    tm_stm32f4_dma.o(i.DMA1_Stream1_IRQHandler) refers to tm_stm32f4_dma.o(i.TM_DMA_INT_ProcessInterrupt) for TM_DMA_INT_ProcessInterrupt
    tm_stm32f4_dma.o(i.DMA1_Stream2_IRQHandler) refers to tm_stm32f4_dma.o(i.TM_DMA_INT_ProcessInterrupt) for TM_DMA_INT_ProcessInterrupt
    tm_stm32f4_dma.o(i.DMA1_Stream3_IRQHandler) refers to tm_stm32f4_dma.o(i.TM_DMA_INT_ProcessInterrupt) for TM_DMA_INT_ProcessInterrupt
    tm_stm32f4_dma.o(i.DMA1_Stream4_IRQHandler) refers to tm_stm32f4_dma.o(i.TM_DMA_INT_ProcessInterrupt) for TM_DMA_INT_ProcessInterrupt
    tm_stm32f4_dma.o(i.DMA1_Stream5_IRQHandler) refers to tm_stm32f4_dma.o(i.TM_DMA_INT_ProcessInterrupt) for TM_DMA_INT_ProcessInterrupt
    tm_stm32f4_dma.o(i.DMA1_Stream6_IRQHandler) refers to tm_stm32f4_dma.o(i.TM_DMA_INT_ProcessInterrupt) for TM_DMA_INT_ProcessInterrupt
    tm_stm32f4_dma.o(i.DMA1_Stream7_IRQHandler) refers to tm_stm32f4_dma.o(i.TM_DMA_INT_ProcessInterrupt) for TM_DMA_INT_ProcessInterrupt
    tm_stm32f4_dma.o(i.DMA2_Stream1_IRQHandler) refers to tm_stm32f4_dma.o(i.TM_DMA_INT_ProcessInterrupt) for TM_DMA_INT_ProcessInterrupt
    tm_stm32f4_dma.o(i.DMA2_Stream2_IRQHandler) refers to tm_stm32f4_dma.o(i.TM_DMA_INT_ProcessInterrupt) for TM_DMA_INT_ProcessInterrupt
    tm_stm32f4_dma.o(i.DMA2_Stream3_IRQHandler) refers to tm_stm32f4_dma.o(i.TM_DMA_INT_ProcessInterrupt) for TM_DMA_INT_ProcessInterrupt
    tm_stm32f4_dma.o(i.DMA2_Stream4_IRQHandler) refers to tm_stm32f4_dma.o(i.TM_DMA_INT_ProcessInterrupt) for TM_DMA_INT_ProcessInterrupt
    tm_stm32f4_dma.o(i.DMA2_Stream5_IRQHandler) refers to tm_stm32f4_dma.o(i.TM_DMA_INT_ProcessInterrupt) for TM_DMA_INT_ProcessInterrupt
    tm_stm32f4_dma.o(i.DMA2_Stream6_IRQHandler) refers to tm_stm32f4_dma.o(i.TM_DMA_INT_ProcessInterrupt) for TM_DMA_INT_ProcessInterrupt
    tm_stm32f4_dma.o(i.DMA2_Stream7_IRQHandler) refers to tm_stm32f4_dma.o(i.TM_DMA_INT_ProcessInterrupt) for TM_DMA_INT_ProcessInterrupt
    tm_stm32f4_dma.o(i.TM_DMA_ClearFlag) refers to tm_stm32f4_dma.o(.constdata) for .constdata
    tm_stm32f4_dma.o(i.TM_DMA_ClearFlags) refers to tm_stm32f4_dma.o(i.TM_DMA_ClearFlag) for TM_DMA_ClearFlag
    tm_stm32f4_dma.o(i.TM_DMA_DisableInterrupts) refers to tm_stm32f4_dma.o(i.TM_DMA_ClearFlag) for TM_DMA_ClearFlag
    tm_stm32f4_dma.o(i.TM_DMA_DisableInterrupts) refers to tm_stm32f4_dma.o(.constdata) for .constdata
    tm_stm32f4_dma.o(i.TM_DMA_EnableInterrupts) refers to tm_stm32f4_dma.o(i.TM_DMA_ClearFlag) for TM_DMA_ClearFlag
    tm_stm32f4_dma.o(i.TM_DMA_EnableInterrupts) refers to misc.o(i.NVIC_Init) for NVIC_Init
    tm_stm32f4_dma.o(i.TM_DMA_EnableInterrupts) refers to tm_stm32f4_dma.o(.constdata) for .constdata
    tm_stm32f4_dma.o(i.TM_DMA_GetFlags) refers to tm_stm32f4_dma.o(.constdata) for .constdata
    tm_stm32f4_dma.o(i.TM_DMA_INT_ProcessInterrupt) refers to tm_stm32f4_dma.o(i.TM_DMA_GetFlags) for TM_DMA_GetFlags
    tm_stm32f4_dma.o(i.TM_DMA_INT_ProcessInterrupt) refers to tm_stm32f4_dma.o(i.TM_DMA_ClearFlag) for TM_DMA_ClearFlag
    tm_stm32f4_dma.o(i.TM_DMA_INT_ProcessInterrupt) refers to tm_stm32f4_dma.o(i.TM_DMA_TransferCompleteHandler) for TM_DMA_TransferCompleteHandler
    tm_stm32f4_dma.o(i.TM_DMA_INT_ProcessInterrupt) refers to tm_stm32f4_dma.o(i.TM_DMA_HalfTransferCompleteHandler) for TM_DMA_HalfTransferCompleteHandler
    tm_stm32f4_dma.o(i.TM_DMA_INT_ProcessInterrupt) refers to tm_stm32f4_dma.o(i.TM_DMA_TransferErrorHandler) for TM_DMA_TransferErrorHandler
    tm_stm32f4_dma.o(i.TM_DMA_INT_ProcessInterrupt) refers to tm_stm32f4_dma.o(i.TM_DMA_DirectModeErrorHandler) for TM_DMA_DirectModeErrorHandler
    tm_stm32f4_dma.o(i.TM_DMA_INT_ProcessInterrupt) refers to tm_stm32f4_dma.o(i.TM_DMA_FIFOErrorHandler) for TM_DMA_FIFOErrorHandler
    tm_stm32f4_gpio.o(i.TM_GPIO_DeInit) refers to tm_stm32f4_gpio.o(i.TM_GPIO_GetPortSource) for TM_GPIO_GetPortSource
    tm_stm32f4_gpio.o(i.TM_GPIO_DeInit) refers to tm_stm32f4_gpio.o(.bss) for .bss
    tm_stm32f4_gpio.o(i.TM_GPIO_GetFreePins) refers to tm_stm32f4_gpio.o(i.TM_GPIO_GetPortSource) for TM_GPIO_GetPortSource
    tm_stm32f4_gpio.o(i.TM_GPIO_GetFreePins) refers to tm_stm32f4_gpio.o(.bss) for .bss
    tm_stm32f4_gpio.o(i.TM_GPIO_GetUsedPins) refers to tm_stm32f4_gpio.o(i.TM_GPIO_GetPortSource) for TM_GPIO_GetPortSource
    tm_stm32f4_gpio.o(i.TM_GPIO_GetUsedPins) refers to tm_stm32f4_gpio.o(.bss) for .bss
    tm_stm32f4_gpio.o(i.TM_GPIO_INT_DisableClock) refers to tm_stm32f4_gpio.o(i.TM_GPIO_GetPortSource) for TM_GPIO_GetPortSource
    tm_stm32f4_gpio.o(i.TM_GPIO_INT_EnableClock) refers to tm_stm32f4_gpio.o(i.TM_GPIO_GetPortSource) for TM_GPIO_GetPortSource
    tm_stm32f4_gpio.o(i.TM_GPIO_INT_Init) refers to tm_stm32f4_gpio.o(i.TM_GPIO_GetPortSource) for TM_GPIO_GetPortSource
    tm_stm32f4_gpio.o(i.TM_GPIO_INT_Init) refers to tm_stm32f4_gpio.o(.bss) for .bss
    tm_stm32f4_gpio.o(i.TM_GPIO_Init) refers to tm_stm32f4_gpio.o(i.TM_GPIO_INT_EnableClock) for TM_GPIO_INT_EnableClock
    tm_stm32f4_gpio.o(i.TM_GPIO_Init) refers to tm_stm32f4_gpio.o(i.TM_GPIO_INT_Init) for TM_GPIO_INT_Init
    tm_stm32f4_gpio.o(i.TM_GPIO_InitAlternate) refers to tm_stm32f4_gpio.o(i.TM_GPIO_INT_EnableClock) for TM_GPIO_INT_EnableClock
    tm_stm32f4_gpio.o(i.TM_GPIO_InitAlternate) refers to tm_stm32f4_gpio.o(i.TM_GPIO_INT_Init) for TM_GPIO_INT_Init
    tm_stm32f4_usart_dma.o(i.TM_USART_DMA_Deinit) refers to tm_stm32f4_usart_dma.o(i.TM_USART_DMA_INT_GetSettings) for TM_USART_DMA_INT_GetSettings
    tm_stm32f4_usart_dma.o(i.TM_USART_DMA_Deinit) refers to stm32f4xx_dma.o(i.DMA_DeInit) for DMA_DeInit
    tm_stm32f4_usart_dma.o(i.TM_USART_DMA_DisableInterrupts) refers to tm_stm32f4_usart_dma.o(i.TM_USART_DMA_INT_GetSettings) for TM_USART_DMA_INT_GetSettings
    tm_stm32f4_usart_dma.o(i.TM_USART_DMA_DisableInterrupts) refers to tm_stm32f4_dma.o(i.TM_DMA_DisableInterrupts) for TM_DMA_DisableInterrupts
    tm_stm32f4_usart_dma.o(i.TM_USART_DMA_EnableInterrupts) refers to tm_stm32f4_usart_dma.o(i.TM_USART_DMA_INT_GetSettings) for TM_USART_DMA_INT_GetSettings
    tm_stm32f4_usart_dma.o(i.TM_USART_DMA_EnableInterrupts) refers to tm_stm32f4_dma.o(i.TM_DMA_EnableInterrupts) for TM_DMA_EnableInterrupts
    tm_stm32f4_usart_dma.o(i.TM_USART_DMA_GetStream) refers to tm_stm32f4_usart_dma.o(i.TM_USART_DMA_INT_GetSettings) for TM_USART_DMA_INT_GetSettings
    tm_stm32f4_usart_dma.o(i.TM_USART_DMA_INT_GetSettings) refers to tm_stm32f4_usart_dma.o(.data) for .data
    tm_stm32f4_usart_dma.o(i.TM_USART_DMA_Init) refers to tm_stm32f4_usart_dma.o(i.TM_USART_DMA_INT_GetSettings) for TM_USART_DMA_INT_GetSettings
    tm_stm32f4_usart_dma.o(i.TM_USART_DMA_Init) refers to tm_stm32f4_dma.o(i.TM_DMA_ClearFlags) for TM_DMA_ClearFlags
    tm_stm32f4_usart_dma.o(i.TM_USART_DMA_Init) refers to tm_stm32f4_usart_dma.o(.bss) for .bss
    tm_stm32f4_usart_dma.o(i.TM_USART_DMA_InitWithStreamAndChannel) refers to tm_stm32f4_usart_dma.o(i.TM_USART_DMA_INT_GetSettings) for TM_USART_DMA_INT_GetSettings
    tm_stm32f4_usart_dma.o(i.TM_USART_DMA_InitWithStreamAndChannel) refers to tm_stm32f4_usart_dma.o(i.TM_USART_DMA_Init) for TM_USART_DMA_Init
    tm_stm32f4_usart_dma.o(i.TM_USART_DMA_Puts) refers to strlen.o(.text) for strlen
    tm_stm32f4_usart_dma.o(i.TM_USART_DMA_Puts) refers to tm_stm32f4_usart_dma.o(i.TM_USART_DMA_Send) for TM_USART_DMA_Send
    tm_stm32f4_usart_dma.o(i.TM_USART_DMA_Send) refers to tm_stm32f4_usart_dma.o(i.TM_USART_DMA_INT_GetSettings) for TM_USART_DMA_INT_GetSettings
    tm_stm32f4_usart_dma.o(i.TM_USART_DMA_Send) refers to tm_stm32f4_dma.o(i.TM_DMA_ClearFlags) for TM_DMA_ClearFlags
    tm_stm32f4_usart_dma.o(i.TM_USART_DMA_Send) refers to stm32f4xx_dma.o(i.DMA_Init) for DMA_Init
    tm_stm32f4_usart_dma.o(i.TM_USART_DMA_Send) refers to tm_stm32f4_usart_dma.o(.bss) for .bss
    tm_stm32f4_usart_dma.o(i.TM_USART_DMA_Sending) refers to tm_stm32f4_usart_dma.o(i.TM_USART_DMA_INT_GetSettings) for TM_USART_DMA_INT_GetSettings
    tm_stm32f4_usart.o(i.TM_UART4_InitPins) refers to tm_stm32f4_usart.o(i.TM_USART_InitCustomPinsCallback) for TM_USART_InitCustomPinsCallback
    tm_stm32f4_usart.o(i.TM_UART4_InitPins) refers to tm_stm32f4_gpio.o(i.TM_GPIO_InitAlternate) for TM_GPIO_InitAlternate
    tm_stm32f4_usart.o(i.TM_UART5_InitPins) refers to tm_stm32f4_usart.o(i.TM_USART_InitCustomPinsCallback) for TM_USART_InitCustomPinsCallback
    tm_stm32f4_usart.o(i.TM_UART5_InitPins) refers to tm_stm32f4_gpio.o(i.TM_GPIO_InitAlternate) for TM_GPIO_InitAlternate
    tm_stm32f4_usart.o(i.TM_USART1_InitPins) refers to tm_stm32f4_usart.o(i.TM_USART_InitCustomPinsCallback) for TM_USART_InitCustomPinsCallback
    tm_stm32f4_usart.o(i.TM_USART1_InitPins) refers to tm_stm32f4_gpio.o(i.TM_GPIO_InitAlternate) for TM_GPIO_InitAlternate
    tm_stm32f4_usart.o(i.TM_USART2_InitPins) refers to tm_stm32f4_usart.o(i.TM_USART_InitCustomPinsCallback) for TM_USART_InitCustomPinsCallback
    tm_stm32f4_usart.o(i.TM_USART2_InitPins) refers to tm_stm32f4_gpio.o(i.TM_GPIO_InitAlternate) for TM_GPIO_InitAlternate
    tm_stm32f4_usart.o(i.TM_USART3_InitPins) refers to tm_stm32f4_usart.o(i.TM_USART_InitCustomPinsCallback) for TM_USART_InitCustomPinsCallback
    tm_stm32f4_usart.o(i.TM_USART3_InitPins) refers to tm_stm32f4_gpio.o(i.TM_GPIO_InitAlternate) for TM_GPIO_InitAlternate
    tm_stm32f4_usart.o(i.TM_USART6_InitPins) refers to tm_stm32f4_usart.o(i.TM_USART_InitCustomPinsCallback) for TM_USART_InitCustomPinsCallback
    tm_stm32f4_usart.o(i.TM_USART6_InitPins) refers to tm_stm32f4_gpio.o(i.TM_GPIO_InitAlternate) for TM_GPIO_InitAlternate
    tm_stm32f4_usart.o(i.TM_USART_BufferEmpty) refers to tm_stm32f4_usart.o(i.TM_USART_INT_GetUsart) for TM_USART_INT_GetUsart
    tm_stm32f4_usart.o(i.TM_USART_BufferFull) refers to tm_stm32f4_usart.o(i.TM_USART_INT_GetUsart) for TM_USART_INT_GetUsart
    tm_stm32f4_usart.o(i.TM_USART_ClearBuffer) refers to tm_stm32f4_usart.o(i.TM_USART_INT_GetUsart) for TM_USART_INT_GetUsart
    tm_stm32f4_usart.o(i.TM_USART_FindCharacter) refers to tm_stm32f4_usart.o(i.TM_USART_INT_GetUsart) for TM_USART_INT_GetUsart
    tm_stm32f4_usart.o(i.TM_USART_Getc) refers to tm_stm32f4_usart.o(i.TM_USART_INT_GetUsart) for TM_USART_INT_GetUsart
    tm_stm32f4_usart.o(i.TM_USART_Gets) refers to tm_stm32f4_usart.o(i.TM_USART_INT_GetUsart) for TM_USART_INT_GetUsart
    tm_stm32f4_usart.o(i.TM_USART_Gets) refers to tm_stm32f4_usart.o(i.TM_USART_FindCharacter) for TM_USART_FindCharacter
    tm_stm32f4_usart.o(i.TM_USART_Gets) refers to tm_stm32f4_usart.o(i.TM_USART_Getc) for TM_USART_Getc
    tm_stm32f4_usart.o(i.TM_USART_INT_GetUsart) refers to tm_stm32f4_usart.o(.data) for .data
    tm_stm32f4_usart.o(i.TM_USART_INT_Init) refers to tm_stm32f4_usart.o(i.TM_USART_INT_GetUsart) for TM_USART_INT_GetUsart
    tm_stm32f4_usart.o(i.TM_USART_INT_Init) refers to tm_stm32f4_usart.o(i.TM_USART1_InitPins) for TM_USART1_InitPins
    tm_stm32f4_usart.o(i.TM_USART_INT_Init) refers to tm_stm32f4_usart.o(i.TM_USART2_InitPins) for TM_USART2_InitPins
    tm_stm32f4_usart.o(i.TM_USART_INT_Init) refers to tm_stm32f4_usart.o(i.TM_USART3_InitPins) for TM_USART3_InitPins
    tm_stm32f4_usart.o(i.TM_USART_INT_Init) refers to tm_stm32f4_usart.o(i.TM_UART4_InitPins) for TM_UART4_InitPins
    tm_stm32f4_usart.o(i.TM_USART_INT_Init) refers to tm_stm32f4_usart.o(i.TM_UART5_InitPins) for TM_UART5_InitPins
    tm_stm32f4_usart.o(i.TM_USART_INT_Init) refers to tm_stm32f4_usart.o(i.TM_USART6_InitPins) for TM_USART6_InitPins
    tm_stm32f4_usart.o(i.TM_USART_INT_Init) refers to stm32f4xx_usart.o(i.USART_DeInit) for USART_DeInit
    tm_stm32f4_usart.o(i.TM_USART_INT_Init) refers to tm_stm32f4_usart.o(i.TM_USART_INT_GetSubPriority) for TM_USART_INT_GetSubPriority
    tm_stm32f4_usart.o(i.TM_USART_INT_Init) refers to misc.o(i.NVIC_Init) for NVIC_Init
    tm_stm32f4_usart.o(i.TM_USART_INT_Init) refers to stm32f4xx_usart.o(i.USART_Init) for USART_Init
    tm_stm32f4_usart.o(i.TM_USART_Init) refers to tm_stm32f4_usart.o(i.TM_USART_INT_Init) for TM_USART_INT_Init
    tm_stm32f4_usart.o(i.TM_USART_InitWithFlowControl) refers to tm_stm32f4_usart.o(i.TM_USART_INT_Init) for TM_USART_INT_Init
    tm_stm32f4_usart.o(i.TM_USART_Puts) refers to tm_stm32f4_usart.o(i.TM_USART_INT_GetUsart) for TM_USART_INT_GetUsart
    tm_stm32f4_usart.o(i.TM_USART_Send) refers to tm_stm32f4_usart.o(i.TM_USART_INT_GetUsart) for TM_USART_INT_GetUsart
    tm_stm32f4_usart.o(i.TM_USART_SetCustomStringEndCharacter) refers to tm_stm32f4_usart.o(i.TM_USART_INT_GetUsart) for TM_USART_INT_GetUsart
    tm_stm32f4_usart.o(i.UART4_IRQHandler) refers to tm_stm32f4_usart.o(i.TM_USART_INT_InsertToBuffer) for TM_USART_INT_InsertToBuffer
    tm_stm32f4_usart.o(i.UART4_IRQHandler) refers to tm_stm32f4_usart.o(.data) for .data
    tm_stm32f4_usart.o(i.UART5_IRQHandler) refers to tm_stm32f4_usart.o(i.TM_USART_INT_InsertToBuffer) for TM_USART_INT_InsertToBuffer
    tm_stm32f4_usart.o(i.UART5_IRQHandler) refers to tm_stm32f4_usart.o(.data) for .data
    tm_stm32f4_usart.o(i.USART1_IRQHandler) refers to tm_stm32f4_usart.o(i.TM_USART_INT_InsertToBuffer) for TM_USART_INT_InsertToBuffer
    tm_stm32f4_usart.o(i.USART1_IRQHandler) refers to tm_stm32f4_usart.o(.data) for .data
    tm_stm32f4_usart.o(i.USART2_IRQHandler) refers to tm_stm32f4_usart.o(i.TM_USART_INT_InsertToBuffer) for TM_USART_INT_InsertToBuffer
    tm_stm32f4_usart.o(i.USART2_IRQHandler) refers to tm_stm32f4_usart.o(.data) for .data
    tm_stm32f4_usart.o(i.USART3_IRQHandler) refers to tm_stm32f4_usart.o(i.TM_USART_INT_InsertToBuffer) for TM_USART_INT_InsertToBuffer
    tm_stm32f4_usart.o(i.USART3_IRQHandler) refers to tm_stm32f4_usart.o(.data) for .data
    tm_stm32f4_usart.o(i.USART6_IRQHandler) refers to tm_stm32f4_usart.o(i.TM_USART_INT_InsertToBuffer) for TM_USART_INT_InsertToBuffer
    tm_stm32f4_usart.o(i.USART6_IRQHandler) refers to tm_stm32f4_usart.o(.data) for .data
    tm_stm32f4_usart.o(.data) refers to tm_stm32f4_usart.o(.bss) for TM_USART1_Buffer
    tm_stm32f4_usart.o(.data) refers to tm_stm32f4_usart.o(.bss) for TM_USART2_Buffer
    tm_stm32f4_usart.o(.data) refers to tm_stm32f4_usart.o(.bss) for TM_USART3_Buffer
    tm_stm32f4_usart.o(.data) refers to tm_stm32f4_usart.o(.bss) for TM_UART4_Buffer
    tm_stm32f4_usart.o(.data) refers to tm_stm32f4_usart.o(.bss) for TM_UART5_Buffer
    tm_stm32f4_usart.o(.data) refers to tm_stm32f4_usart.o(.bss) for TM_USART6_Buffer
    sqrt.o(i.__hardfp_sqrt) refers (Special) to iusefp.o(.text) for __I$use$fp
    sqrt.o(i.__hardfp_sqrt) refers to dsqrt.o(.text) for _dsqrt
    sqrt.o(i.__hardfp_sqrt) refers to errno.o(i.__set_errno) for __set_errno
    sqrt.o(i.__softfp_sqrt) refers (Special) to iusefp.o(.text) for __I$use$fp
    sqrt.o(i.__softfp_sqrt) refers to dsqrt.o(.text) for _dsqrt
    sqrt.o(i.__softfp_sqrt) refers to errno.o(i.__set_errno) for __set_errno
    sqrt.o(i.sqrt) refers (Special) to iusefp.o(.text) for __I$use$fp
    sqrt.o(i.sqrt) refers to dsqrt.o(.text) for _dsqrt
    sqrt.o(i.sqrt) refers to errno.o(i.__set_errno) for __set_errno
    sqrt_x.o(i.____hardfp_sqrt$lsc) refers (Special) to iusefp.o(.text) for __I$use$fp
    sqrt_x.o(i.____hardfp_sqrt$lsc) refers to cdcmple.o(.text) for __aeabi_cdcmple
    sqrt_x.o(i.____hardfp_sqrt$lsc) refers to errno.o(i.__set_errno) for __set_errno
    sqrt_x.o(i.____hardfp_sqrt$lsc) refers to dsqrt.o(.text) for _dsqrt
    sqrt_x.o(i.____softfp_sqrt$lsc) refers (Special) to iusefp.o(.text) for __I$use$fp
    sqrt_x.o(i.____softfp_sqrt$lsc) refers to cdcmple.o(.text) for __aeabi_cdcmple
    sqrt_x.o(i.____softfp_sqrt$lsc) refers to errno.o(i.__set_errno) for __set_errno
    sqrt_x.o(i.____softfp_sqrt$lsc) refers to dsqrt.o(.text) for _dsqrt
    sqrt_x.o(i.__sqrt$lsc) refers (Special) to iusefp.o(.text) for __I$use$fp
    sqrt_x.o(i.__sqrt$lsc) refers to cdcmple.o(.text) for __aeabi_cdcmple
    sqrt_x.o(i.__sqrt$lsc) refers to errno.o(i.__set_errno) for __set_errno
    sqrt_x.o(i.__sqrt$lsc) refers to dsqrt.o(.text) for _dsqrt
    entry.o(.ARM.Collect$$$$00000000) refers (Special) to entry10a.o(.ARM.Collect$$$$0000000D) for __rt_final_cpp
    entry.o(.ARM.Collect$$$$00000000) refers (Special) to entry11a.o(.ARM.Collect$$$$0000000F) for __rt_final_exit
    entry.o(.ARM.Collect$$$$00000000) refers (Special) to entry7b.o(.ARM.Collect$$$$00000008) for _main_clock
    entry.o(.ARM.Collect$$$$00000000) refers (Special) to entry8b.o(.ARM.Collect$$$$0000000A) for _main_cpp_init
    entry.o(.ARM.Collect$$$$00000000) refers (Special) to entry9a.o(.ARM.Collect$$$$0000000B) for _main_init
    entry.o(.ARM.Collect$$$$00000000) refers (Special) to entry5.o(.ARM.Collect$$$$00000004) for _main_scatterload
    entry.o(.ARM.Collect$$$$00000000) refers (Special) to entry2.o(.ARM.Collect$$$$00000001) for _main_stk
    printfb.o(i.__0fprintf$bare) refers to printfb.o(i._printf_core) for _printf_core
    printfb.o(i.__0fprintf$bare) refers to usart.o(i.fputc) for fputc
    printfb.o(i.__0printf$bare) refers to printfb.o(i._printf_core) for _printf_core
    printfb.o(i.__0printf$bare) refers to usart.o(i.fputc) for fputc
    printfb.o(i.__0printf$bare) refers to stdout.o(.data) for __stdout
    printfb.o(i.__0snprintf$bare) refers to printfb.o(i._printf_core) for _printf_core
    printfb.o(i.__0snprintf$bare) refers to printfb.o(i._snputc) for _snputc
    printfb.o(i.__0sprintf$bare) refers to printfb.o(i._printf_core) for _printf_core
    printfb.o(i.__0sprintf$bare) refers to printfb.o(i._sputc) for _sputc
    printfb.o(i.__0vfprintf$bare) refers to printfb.o(i._printf_core) for _printf_core
    printfb.o(i.__0vfprintf$bare) refers to usart.o(i.fputc) for fputc
    printfb.o(i.__0vprintf$bare) refers to printfb.o(i._printf_core) for _printf_core
    printfb.o(i.__0vprintf$bare) refers to usart.o(i.fputc) for fputc
    printfb.o(i.__0vprintf$bare) refers to stdout.o(.data) for __stdout
    printfb.o(i.__0vsnprintf$bare) refers to printfb.o(i._printf_core) for _printf_core
    printfb.o(i.__0vsnprintf$bare) refers to printfb.o(i._snputc) for _snputc
    printfb.o(i.__0vsprintf$bare) refers to printfb.o(i._printf_core) for _printf_core
    printfb.o(i.__0vsprintf$bare) refers to printfb.o(i._sputc) for _sputc
    printf0.o(i.__0fprintf$0) refers to printf0.o(i._printf_core) for _printf_core
    printf0.o(i.__0fprintf$0) refers to usart.o(i.fputc) for fputc
    printf0.o(i.__0printf$0) refers to printf0.o(i._printf_core) for _printf_core
    printf0.o(i.__0printf$0) refers to usart.o(i.fputc) for fputc
    printf0.o(i.__0printf$0) refers to stdout.o(.data) for __stdout
    printf0.o(i.__0snprintf$0) refers to printf0.o(i._printf_core) for _printf_core
    printf0.o(i.__0snprintf$0) refers to printf0.o(i._snputc) for _snputc
    printf0.o(i.__0sprintf$0) refers to printf0.o(i._printf_core) for _printf_core
    printf0.o(i.__0sprintf$0) refers to printf0.o(i._sputc) for _sputc
    printf0.o(i.__0vfprintf$0) refers to printf0.o(i._printf_core) for _printf_core
    printf0.o(i.__0vfprintf$0) refers to usart.o(i.fputc) for fputc
    printf0.o(i.__0vprintf$0) refers to printf0.o(i._printf_core) for _printf_core
    printf0.o(i.__0vprintf$0) refers to usart.o(i.fputc) for fputc
    printf0.o(i.__0vprintf$0) refers to stdout.o(.data) for __stdout
    printf0.o(i.__0vsnprintf$0) refers to printf0.o(i._printf_core) for _printf_core
    printf0.o(i.__0vsnprintf$0) refers to printf0.o(i._snputc) for _snputc
    printf0.o(i.__0vsprintf$0) refers to printf0.o(i._printf_core) for _printf_core
    printf0.o(i.__0vsprintf$0) refers to printf0.o(i._sputc) for _sputc
    printf1.o(i.__0fprintf$1) refers to printf1.o(i._printf_core) for _printf_core
    printf1.o(i.__0fprintf$1) refers to usart.o(i.fputc) for fputc
    printf1.o(i.__0printf$1) refers to printf1.o(i._printf_core) for _printf_core
    printf1.o(i.__0printf$1) refers to usart.o(i.fputc) for fputc
    printf1.o(i.__0printf$1) refers to stdout.o(.data) for __stdout
    printf1.o(i.__0snprintf$1) refers to printf1.o(i._printf_core) for _printf_core
    printf1.o(i.__0snprintf$1) refers to printf1.o(i._snputc) for _snputc
    printf1.o(i.__0sprintf$1) refers to printf1.o(i._printf_core) for _printf_core
    printf1.o(i.__0sprintf$1) refers to printf1.o(i._sputc) for _sputc
    printf1.o(i.__0vfprintf$1) refers to printf1.o(i._printf_core) for _printf_core
    printf1.o(i.__0vfprintf$1) refers to usart.o(i.fputc) for fputc
    printf1.o(i.__0vprintf$1) refers to printf1.o(i._printf_core) for _printf_core
    printf1.o(i.__0vprintf$1) refers to usart.o(i.fputc) for fputc
    printf1.o(i.__0vprintf$1) refers to stdout.o(.data) for __stdout
    printf1.o(i.__0vsnprintf$1) refers to printf1.o(i._printf_core) for _printf_core
    printf1.o(i.__0vsnprintf$1) refers to printf1.o(i._snputc) for _snputc
    printf1.o(i.__0vsprintf$1) refers to printf1.o(i._printf_core) for _printf_core
    printf1.o(i.__0vsprintf$1) refers to printf1.o(i._sputc) for _sputc
    printf1.o(i._printf_core) refers to uidiv.o(.text) for __aeabi_uidivmod
    printf2.o(i.__0fprintf$2) refers to printf2.o(i._printf_core) for _printf_core
    printf2.o(i.__0fprintf$2) refers to usart.o(i.fputc) for fputc
    printf2.o(i.__0printf$2) refers to printf2.o(i._printf_core) for _printf_core
    printf2.o(i.__0printf$2) refers to usart.o(i.fputc) for fputc
    printf2.o(i.__0printf$2) refers to stdout.o(.data) for __stdout
    printf2.o(i.__0snprintf$2) refers to printf2.o(i._printf_core) for _printf_core
    printf2.o(i.__0snprintf$2) refers to printf2.o(i._snputc) for _snputc
    printf2.o(i.__0sprintf$2) refers to printf2.o(i._printf_core) for _printf_core
    printf2.o(i.__0sprintf$2) refers to printf2.o(i._sputc) for _sputc
    printf2.o(i.__0vfprintf$2) refers to printf2.o(i._printf_core) for _printf_core
    printf2.o(i.__0vfprintf$2) refers to usart.o(i.fputc) for fputc
    printf2.o(i.__0vprintf$2) refers to printf2.o(i._printf_core) for _printf_core
    printf2.o(i.__0vprintf$2) refers to usart.o(i.fputc) for fputc
    printf2.o(i.__0vprintf$2) refers to stdout.o(.data) for __stdout
    printf2.o(i.__0vsnprintf$2) refers to printf2.o(i._printf_core) for _printf_core
    printf2.o(i.__0vsnprintf$2) refers to printf2.o(i._snputc) for _snputc
    printf2.o(i.__0vsprintf$2) refers to printf2.o(i._printf_core) for _printf_core
    printf2.o(i.__0vsprintf$2) refers to printf2.o(i._sputc) for _sputc
    printf3.o(i.__0fprintf$3) refers to printf3.o(i._printf_core) for _printf_core
    printf3.o(i.__0fprintf$3) refers to usart.o(i.fputc) for fputc
    printf3.o(i.__0printf$3) refers to printf3.o(i._printf_core) for _printf_core
    printf3.o(i.__0printf$3) refers to usart.o(i.fputc) for fputc
    printf3.o(i.__0printf$3) refers to stdout.o(.data) for __stdout
    printf3.o(i.__0snprintf$3) refers to printf3.o(i._printf_core) for _printf_core
    printf3.o(i.__0snprintf$3) refers to printf3.o(i._snputc) for _snputc
    printf3.o(i.__0sprintf$3) refers to printf3.o(i._printf_core) for _printf_core
    printf3.o(i.__0sprintf$3) refers to printf3.o(i._sputc) for _sputc
    printf3.o(i.__0vfprintf$3) refers to printf3.o(i._printf_core) for _printf_core
    printf3.o(i.__0vfprintf$3) refers to usart.o(i.fputc) for fputc
    printf3.o(i.__0vprintf$3) refers to printf3.o(i._printf_core) for _printf_core
    printf3.o(i.__0vprintf$3) refers to usart.o(i.fputc) for fputc
    printf3.o(i.__0vprintf$3) refers to stdout.o(.data) for __stdout
    printf3.o(i.__0vsnprintf$3) refers to printf3.o(i._printf_core) for _printf_core
    printf3.o(i.__0vsnprintf$3) refers to printf3.o(i._snputc) for _snputc
    printf3.o(i.__0vsprintf$3) refers to printf3.o(i._printf_core) for _printf_core
    printf3.o(i.__0vsprintf$3) refers to printf3.o(i._sputc) for _sputc
    printf3.o(i._printf_core) refers to uidiv.o(.text) for __aeabi_uidivmod
    printf4.o(i.__0fprintf$4) refers to printf4.o(i._printf_core) for _printf_core
    printf4.o(i.__0fprintf$4) refers to usart.o(i.fputc) for fputc
    printf4.o(i.__0printf$4) refers to printf4.o(i._printf_core) for _printf_core
    printf4.o(i.__0printf$4) refers to usart.o(i.fputc) for fputc
    printf4.o(i.__0printf$4) refers to stdout.o(.data) for __stdout
    printf4.o(i.__0snprintf$4) refers to printf4.o(i._printf_core) for _printf_core
    printf4.o(i.__0snprintf$4) refers to printf4.o(i._snputc) for _snputc
    printf4.o(i.__0sprintf$4) refers to printf4.o(i._printf_core) for _printf_core
    printf4.o(i.__0sprintf$4) refers to printf4.o(i._sputc) for _sputc
    printf4.o(i.__0vfprintf$4) refers to printf4.o(i._printf_core) for _printf_core
    printf4.o(i.__0vfprintf$4) refers to usart.o(i.fputc) for fputc
    printf4.o(i.__0vprintf$4) refers to printf4.o(i._printf_core) for _printf_core
    printf4.o(i.__0vprintf$4) refers to usart.o(i.fputc) for fputc
    printf4.o(i.__0vprintf$4) refers to stdout.o(.data) for __stdout
    printf4.o(i.__0vsnprintf$4) refers to printf4.o(i._printf_core) for _printf_core
    printf4.o(i.__0vsnprintf$4) refers to printf4.o(i._snputc) for _snputc
    printf4.o(i.__0vsprintf$4) refers to printf4.o(i._printf_core) for _printf_core
    printf4.o(i.__0vsprintf$4) refers to printf4.o(i._sputc) for _sputc
    printf4.o(i._printf_core) refers to uldiv.o(.text) for __aeabi_uldivmod
    printf5.o(i.__0fprintf$5) refers to printf5.o(i._printf_core) for _printf_core
    printf5.o(i.__0fprintf$5) refers to usart.o(i.fputc) for fputc
    printf5.o(i.__0printf$5) refers to printf5.o(i._printf_core) for _printf_core
    printf5.o(i.__0printf$5) refers to usart.o(i.fputc) for fputc
    printf5.o(i.__0printf$5) refers to stdout.o(.data) for __stdout
    printf5.o(i.__0snprintf$5) refers to printf5.o(i._printf_core) for _printf_core
    printf5.o(i.__0snprintf$5) refers to printf5.o(i._snputc) for _snputc
    printf5.o(i.__0sprintf$5) refers to printf5.o(i._printf_core) for _printf_core
    printf5.o(i.__0sprintf$5) refers to printf5.o(i._sputc) for _sputc
    printf5.o(i.__0vfprintf$5) refers to printf5.o(i._printf_core) for _printf_core
    printf5.o(i.__0vfprintf$5) refers to usart.o(i.fputc) for fputc
    printf5.o(i.__0vprintf$5) refers to printf5.o(i._printf_core) for _printf_core
    printf5.o(i.__0vprintf$5) refers to usart.o(i.fputc) for fputc
    printf5.o(i.__0vprintf$5) refers to stdout.o(.data) for __stdout
    printf5.o(i.__0vsnprintf$5) refers to printf5.o(i._printf_core) for _printf_core
    printf5.o(i.__0vsnprintf$5) refers to printf5.o(i._snputc) for _snputc
    printf5.o(i.__0vsprintf$5) refers to printf5.o(i._printf_core) for _printf_core
    printf5.o(i.__0vsprintf$5) refers to printf5.o(i._sputc) for _sputc
    printf5.o(i._printf_core) refers to uldiv.o(.text) for __aeabi_uldivmod
    printf6.o(i.__0fprintf$6) refers to printf6.o(i._printf_core) for _printf_core
    printf6.o(i.__0fprintf$6) refers to usart.o(i.fputc) for fputc
    printf6.o(i.__0printf$6) refers to printf6.o(i._printf_core) for _printf_core
    printf6.o(i.__0printf$6) refers to usart.o(i.fputc) for fputc
    printf6.o(i.__0printf$6) refers to stdout.o(.data) for __stdout
    printf6.o(i.__0snprintf$6) refers to printf6.o(i._printf_core) for _printf_core
    printf6.o(i.__0snprintf$6) refers to printf6.o(i._snputc) for _snputc
    printf6.o(i.__0sprintf$6) refers to printf6.o(i._printf_core) for _printf_core
    printf6.o(i.__0sprintf$6) refers to printf6.o(i._sputc) for _sputc
    printf6.o(i.__0vfprintf$6) refers to printf6.o(i._printf_core) for _printf_core
    printf6.o(i.__0vfprintf$6) refers to usart.o(i.fputc) for fputc
    printf6.o(i.__0vprintf$6) refers to printf6.o(i._printf_core) for _printf_core
    printf6.o(i.__0vprintf$6) refers to usart.o(i.fputc) for fputc
    printf6.o(i.__0vprintf$6) refers to stdout.o(.data) for __stdout
    printf6.o(i.__0vsnprintf$6) refers to printf6.o(i._printf_core) for _printf_core
    printf6.o(i.__0vsnprintf$6) refers to printf6.o(i._snputc) for _snputc
    printf6.o(i.__0vsprintf$6) refers to printf6.o(i._printf_core) for _printf_core
    printf6.o(i.__0vsprintf$6) refers to printf6.o(i._sputc) for _sputc
    printf6.o(i._printf_core) refers to printf6.o(i._printf_pre_padding) for _printf_pre_padding
    printf6.o(i._printf_core) refers to uidiv.o(.text) for __aeabi_uidivmod
    printf6.o(i._printf_core) refers to printf6.o(i._printf_post_padding) for _printf_post_padding
    printf7.o(i.__0fprintf$7) refers to printf7.o(i._printf_core) for _printf_core
    printf7.o(i.__0fprintf$7) refers to usart.o(i.fputc) for fputc
    printf7.o(i.__0printf$7) refers to printf7.o(i._printf_core) for _printf_core
    printf7.o(i.__0printf$7) refers to usart.o(i.fputc) for fputc
    printf7.o(i.__0printf$7) refers to stdout.o(.data) for __stdout
    printf7.o(i.__0snprintf$7) refers to printf7.o(i._printf_core) for _printf_core
    printf7.o(i.__0snprintf$7) refers to printf7.o(i._snputc) for _snputc
    printf7.o(i.__0sprintf$7) refers to printf7.o(i._printf_core) for _printf_core
    printf7.o(i.__0sprintf$7) refers to printf7.o(i._sputc) for _sputc
    printf7.o(i.__0vfprintf$7) refers to printf7.o(i._printf_core) for _printf_core
    printf7.o(i.__0vfprintf$7) refers to usart.o(i.fputc) for fputc
    printf7.o(i.__0vprintf$7) refers to printf7.o(i._printf_core) for _printf_core
    printf7.o(i.__0vprintf$7) refers to usart.o(i.fputc) for fputc
    printf7.o(i.__0vprintf$7) refers to stdout.o(.data) for __stdout
    printf7.o(i.__0vsnprintf$7) refers to printf7.o(i._printf_core) for _printf_core
    printf7.o(i.__0vsnprintf$7) refers to printf7.o(i._snputc) for _snputc
    printf7.o(i.__0vsprintf$7) refers to printf7.o(i._printf_core) for _printf_core
    printf7.o(i.__0vsprintf$7) refers to printf7.o(i._sputc) for _sputc
    printf7.o(i._printf_core) refers to printf7.o(i._printf_pre_padding) for _printf_pre_padding
    printf7.o(i._printf_core) refers to uldiv.o(.text) for __aeabi_uldivmod
    printf7.o(i._printf_core) refers to printf7.o(i._printf_post_padding) for _printf_post_padding
    printf8.o(i.__0fprintf$8) refers to printf8.o(i._printf_core) for _printf_core
    printf8.o(i.__0fprintf$8) refers to usart.o(i.fputc) for fputc
    printf8.o(i.__0printf$8) refers to printf8.o(i._printf_core) for _printf_core
    printf8.o(i.__0printf$8) refers to usart.o(i.fputc) for fputc
    printf8.o(i.__0printf$8) refers to stdout.o(.data) for __stdout
    printf8.o(i.__0snprintf$8) refers to printf8.o(i._printf_core) for _printf_core
    printf8.o(i.__0snprintf$8) refers to printf8.o(i._snputc) for _snputc
    printf8.o(i.__0sprintf$8) refers to printf8.o(i._printf_core) for _printf_core
    printf8.o(i.__0sprintf$8) refers to printf8.o(i._sputc) for _sputc
    printf8.o(i.__0vfprintf$8) refers to printf8.o(i._printf_core) for _printf_core
    printf8.o(i.__0vfprintf$8) refers to usart.o(i.fputc) for fputc
    printf8.o(i.__0vprintf$8) refers to printf8.o(i._printf_core) for _printf_core
    printf8.o(i.__0vprintf$8) refers to usart.o(i.fputc) for fputc
    printf8.o(i.__0vprintf$8) refers to stdout.o(.data) for __stdout
    printf8.o(i.__0vsnprintf$8) refers to printf8.o(i._printf_core) for _printf_core
    printf8.o(i.__0vsnprintf$8) refers to printf8.o(i._snputc) for _snputc
    printf8.o(i.__0vsprintf$8) refers to printf8.o(i._printf_core) for _printf_core
    printf8.o(i.__0vsprintf$8) refers to printf8.o(i._sputc) for _sputc
    printf8.o(i._printf_core) refers to printf8.o(i._printf_pre_padding) for _printf_pre_padding
    printf8.o(i._printf_core) refers to uldiv.o(.text) for __aeabi_uldivmod
    printf8.o(i._printf_core) refers to printf8.o(i._printf_post_padding) for _printf_post_padding
    printfa.o(i.__0fprintf) refers (Special) to iusefp.o(.text) for __I$use$fp
    printfa.o(i.__0fprintf) refers to printfa.o(i._printf_core) for _printf_core
    printfa.o(i.__0fprintf) refers to usart.o(i.fputc) for fputc
    printfa.o(i.__0printf) refers (Special) to iusefp.o(.text) for __I$use$fp
    printfa.o(i.__0printf) refers to printfa.o(i._printf_core) for _printf_core
    printfa.o(i.__0printf) refers to usart.o(i.fputc) for fputc
    printfa.o(i.__0printf) refers to stdout.o(.data) for __stdout
    printfa.o(i.__0snprintf) refers (Special) to iusefp.o(.text) for __I$use$fp
    printfa.o(i.__0snprintf) refers to printfa.o(i._printf_core) for _printf_core
    printfa.o(i.__0snprintf) refers to printfa.o(i._snputc) for _snputc
    printfa.o(i.__0sprintf) refers (Special) to iusefp.o(.text) for __I$use$fp
    printfa.o(i.__0sprintf) refers to printfa.o(i._printf_core) for _printf_core
    printfa.o(i.__0sprintf) refers to printfa.o(i._sputc) for _sputc
    printfa.o(i.__0vfprintf) refers (Special) to iusefp.o(.text) for __I$use$fp
    printfa.o(i.__0vfprintf) refers to printfa.o(i._printf_core) for _printf_core
    printfa.o(i.__0vfprintf) refers to usart.o(i.fputc) for fputc
    printfa.o(i.__0vprintf) refers (Special) to iusefp.o(.text) for __I$use$fp
    printfa.o(i.__0vprintf) refers to printfa.o(i._printf_core) for _printf_core
    printfa.o(i.__0vprintf) refers to usart.o(i.fputc) for fputc
    printfa.o(i.__0vprintf) refers to stdout.o(.data) for __stdout
    printfa.o(i.__0vsnprintf) refers (Special) to iusefp.o(.text) for __I$use$fp
    printfa.o(i.__0vsnprintf) refers to printfa.o(i._printf_core) for _printf_core
    printfa.o(i.__0vsnprintf) refers to printfa.o(i._snputc) for _snputc
    printfa.o(i.__0vsprintf) refers (Special) to iusefp.o(.text) for __I$use$fp
    printfa.o(i.__0vsprintf) refers to printfa.o(i._printf_core) for _printf_core
    printfa.o(i.__0vsprintf) refers to printfa.o(i._sputc) for _sputc
    printfa.o(i._fp_digits) refers (Special) to iusefp.o(.text) for __I$use$fp
    printfa.o(i._fp_digits) refers to dmul.o(.text) for __aeabi_dmul
    printfa.o(i._fp_digits) refers to ddiv.o(.text) for __aeabi_ddiv
    printfa.o(i._fp_digits) refers to cdrcmple.o(.text) for __aeabi_cdrcmple
    printfa.o(i._fp_digits) refers to dadd.o(.text) for __aeabi_dadd
    printfa.o(i._fp_digits) refers to dfixul.o(.text) for __aeabi_d2ulz
    printfa.o(i._fp_digits) refers to uldiv.o(.text) for __aeabi_uldivmod
    printfa.o(i._printf_core) refers (Special) to iusefp.o(.text) for __I$use$fp
    printfa.o(i._printf_core) refers to printfa.o(i._printf_pre_padding) for _printf_pre_padding
    printfa.o(i._printf_core) refers to uldiv.o(.text) for __aeabi_uldivmod
    printfa.o(i._printf_core) refers to printfa.o(i._printf_post_padding) for _printf_post_padding
    printfa.o(i._printf_core) refers to printfa.o(i._fp_digits) for _fp_digits
    printfa.o(i._printf_core) refers to uidiv.o(.text) for __aeabi_uidivmod
    printfa.o(i._printf_post_padding) refers (Special) to iusefp.o(.text) for __I$use$fp
    printfa.o(i._printf_pre_padding) refers (Special) to iusefp.o(.text) for __I$use$fp
    printfa.o(i._snputc) refers (Special) to iusefp.o(.text) for __I$use$fp
    printfa.o(i._sputc) refers (Special) to iusefp.o(.text) for __I$use$fp
    dadd.o(.text) refers (Special) to iusefp.o(.text) for __I$use$fp
    dadd.o(.text) refers to llshl.o(.text) for __aeabi_llsl
    dadd.o(.text) refers to llsshr.o(.text) for __aeabi_lasr
    dadd.o(.text) refers to depilogue.o(.text) for _double_epilogue
    dmul.o(.text) refers (Special) to iusefp.o(.text) for __I$use$fp
    dmul.o(.text) refers to depilogue.o(.text) for _double_epilogue
    ddiv.o(.text) refers (Special) to iusefp.o(.text) for __I$use$fp
    ddiv.o(.text) refers to depilogue.o(.text) for _double_round
    dfltui.o(.text) refers (Special) to iusefp.o(.text) for __I$use$fp
    dfltui.o(.text) refers to depilogue.o(.text) for _double_epilogue
    dfixui.o(.text) refers (Special) to iusefp.o(.text) for __I$use$fp
    dfixui.o(.text) refers to llushr.o(.text) for __aeabi_llsr
    d2f.o(.text) refers (Special) to iusefp.o(.text) for __I$use$fp
    d2f.o(.text) refers to fepilogue.o(.text) for _float_round
    entry2.o(.ARM.Collect$$$$00000001) refers to entry2.o(.ARM.Collect$$$$00002712) for __lit__00000000
    entry2.o(.ARM.Collect$$$$00002712) refers to startup_stm32f40_41xxx.o(STACK) for __initial_sp
    entry2.o(__vectab_stack_and_reset_area) refers to startup_stm32f40_41xxx.o(STACK) for __initial_sp
    entry2.o(__vectab_stack_and_reset_area) refers to entry.o(.ARM.Collect$$$$00000000) for __main
    entry5.o(.ARM.Collect$$$$00000004) refers to init.o(.text) for __scatterload
    entry9a.o(.ARM.Collect$$$$0000000B) refers to main.o(i.main) for main
    entry9b.o(.ARM.Collect$$$$0000000C) refers to main.o(i.main) for main
    uldiv.o(.text) refers to llushr.o(.text) for __aeabi_llsr
    uldiv.o(.text) refers to llshl.o(.text) for __aeabi_llsl
    errno.o(i.__aeabi_errno_addr) refers to errno.o(.data) for .data
    errno.o(i.__read_errno) refers to errno.o(.data) for .data
    errno.o(i.__set_errno) refers to errno.o(.data) for .data
    depilogue.o(.text) refers to llshl.o(.text) for __aeabi_llsl
    depilogue.o(.text) refers to llushr.o(.text) for __aeabi_llsr
    dsqrt.o(.text) refers to llushr.o(.text) for __aeabi_llsr
    dsqrt.o(.text) refers to depilogue.o(.text) for _double_round
    dfixul.o(.text) refers to llushr.o(.text) for __aeabi_llsr
    dfixul.o(.text) refers to llshl.o(.text) for __aeabi_llsl
    init.o(.text) refers to entry5.o(.ARM.Collect$$$$00000004) for __main_after_scatterload


==============================================================================

Removing Unused input sections from the image.

    Removing usb_core.o(.rev16_text), (4 bytes).
    Removing usb_core.o(.revsh_text), (4 bytes).
    Removing usb_core.o(.rrx_text), (6 bytes).
    Removing usb_core.o(i.USB_OTG_ActiveRemoteWakeup), (66 bytes).
    Removing usb_core.o(i.USB_OTG_GetEPStatus), (66 bytes).
    Removing usb_core.o(i.USB_OTG_GetMode), (10 bytes).
    Removing usb_core.o(i.USB_OTG_IsHostMode), (14 bytes).
    Removing usb_core.o(i.USB_OTG_ReadOtgItr), (6 bytes).
    Removing usb_core.o(i.USB_OTG_SetEPStatus), (110 bytes).
    Removing usb_core.o(i.USB_OTG_StopDevice), (74 bytes).
    Removing usb_dcd_int.o(.rev16_text), (4 bytes).
    Removing usb_dcd_int.o(.revsh_text), (4 bytes).
    Removing usb_dcd_int.o(.rrx_text), (6 bytes).
    Removing usb_dcd.o(.rev16_text), (4 bytes).
    Removing usb_dcd.o(.revsh_text), (4 bytes).
    Removing usb_dcd.o(.rrx_text), (6 bytes).
    Removing usb_dcd.o(i.DCD_DevConnect), (16 bytes).
    Removing usb_dcd.o(i.DCD_DevDisconnect), (16 bytes).
    Removing usb_dcd.o(i.DCD_GetEPStatus), (38 bytes).
    Removing usb_dcd.o(i.DCD_SetEPStatus), (38 bytes).
    Removing usb_bsp.o(.rev16_text), (4 bytes).
    Removing usb_bsp.o(.revsh_text), (4 bytes).
    Removing usb_bsp.o(.rrx_text), (6 bytes).
    Removing usbd_usr.o(.rev16_text), (4 bytes).
    Removing usbd_usr.o(.revsh_text), (4 bytes).
    Removing usbd_usr.o(.rrx_text), (6 bytes).
    Removing usbd_desc.o(.rev16_text), (4 bytes).
    Removing usbd_desc.o(.revsh_text), (4 bytes).
    Removing usbd_desc.o(.rrx_text), (6 bytes).
    Removing usbd_core.o(.rev16_text), (4 bytes).
    Removing usbd_core.o(.revsh_text), (4 bytes).
    Removing usbd_core.o(.rrx_text), (6 bytes).
    Removing usbd_core.o(i.USBD_DeInit), (4 bytes).
    Removing usbd_ioreq.o(.rev16_text), (4 bytes).
    Removing usbd_ioreq.o(.revsh_text), (4 bytes).
    Removing usbd_ioreq.o(.rrx_text), (6 bytes).
    Removing usbd_req.o(.rev16_text), (4 bytes).
    Removing usbd_req.o(.revsh_text), (4 bytes).
    Removing usbd_req.o(.rrx_text), (6 bytes).
    Removing usbd_cdc_core.o(.rev16_text), (4 bytes).
    Removing usbd_cdc_core.o(.revsh_text), (4 bytes).
    Removing usbd_cdc_core.o(.rrx_text), (6 bytes).
    Removing usbd_cdc_core.o(.bss), (2048 bytes).
    Removing misc.o(.rev16_text), (4 bytes).
    Removing misc.o(.revsh_text), (4 bytes).
    Removing misc.o(.rrx_text), (6 bytes).
    Removing misc.o(i.NVIC_SetVectorTable), (20 bytes).
    Removing misc.o(i.NVIC_SystemLPConfig), (24 bytes).
    Removing misc.o(i.SysTick_CLKSourceConfig), (24 bytes).
    Removing stm32f4xx_adc.o(.rev16_text), (4 bytes).
    Removing stm32f4xx_adc.o(.revsh_text), (4 bytes).
    Removing stm32f4xx_adc.o(.rrx_text), (6 bytes).
    Removing stm32f4xx_adc.o(i.ADC_AnalogWatchdogCmd), (16 bytes).
    Removing stm32f4xx_adc.o(i.ADC_AnalogWatchdogSingleChannelConfig), (12 bytes).
    Removing stm32f4xx_adc.o(i.ADC_AnalogWatchdogThresholdsConfig), (6 bytes).
    Removing stm32f4xx_adc.o(i.ADC_AutoInjectedConvCmd), (20 bytes).
    Removing stm32f4xx_adc.o(i.ADC_ClearFlag), (6 bytes).
    Removing stm32f4xx_adc.o(i.ADC_ClearITPendingBit), (8 bytes).
    Removing stm32f4xx_adc.o(i.ADC_CommonStructInit), (12 bytes).
    Removing stm32f4xx_adc.o(i.ADC_ContinuousModeCmd), (20 bytes).
    Removing stm32f4xx_adc.o(i.ADC_DMACmd), (20 bytes).
    Removing stm32f4xx_adc.o(i.ADC_DMARequestAfterLastTransferCmd), (20 bytes).
    Removing stm32f4xx_adc.o(i.ADC_DeInit), (24 bytes).
    Removing stm32f4xx_adc.o(i.ADC_DiscModeChannelCountConfig), (16 bytes).
    Removing stm32f4xx_adc.o(i.ADC_DiscModeCmd), (20 bytes).
    Removing stm32f4xx_adc.o(i.ADC_EOCOnEachRegularChannelCmd), (20 bytes).
    Removing stm32f4xx_adc.o(i.ADC_ExternalTrigInjectedConvConfig), (12 bytes).
    Removing stm32f4xx_adc.o(i.ADC_ExternalTrigInjectedConvEdgeConfig), (12 bytes).
    Removing stm32f4xx_adc.o(i.ADC_GetITStatus), (30 bytes).
    Removing stm32f4xx_adc.o(i.ADC_GetInjectedConversionValue), (14 bytes).
    Removing stm32f4xx_adc.o(i.ADC_GetMultiModeConversionValue), (12 bytes).
    Removing stm32f4xx_adc.o(i.ADC_GetSoftwareStartConvStatus), (14 bytes).
    Removing stm32f4xx_adc.o(i.ADC_GetSoftwareStartInjectedConvCmdStatus), (14 bytes).
    Removing stm32f4xx_adc.o(i.ADC_ITConfig), (18 bytes).
    Removing stm32f4xx_adc.o(i.ADC_InjectedChannelConfig), (74 bytes).
    Removing stm32f4xx_adc.o(i.ADC_InjectedDiscModeCmd), (20 bytes).
    Removing stm32f4xx_adc.o(i.ADC_InjectedSequencerLengthConfig), (16 bytes).
    Removing stm32f4xx_adc.o(i.ADC_MultiModeDMARequestAfterLastTransferCmd), (32 bytes).
    Removing stm32f4xx_adc.o(i.ADC_SetInjectedOffset), (10 bytes).
    Removing stm32f4xx_adc.o(i.ADC_SoftwareStartInjectedConv), (10 bytes).
    Removing stm32f4xx_adc.o(i.ADC_StructInit), (20 bytes).
    Removing stm32f4xx_adc.o(i.ADC_TempSensorVrefintCmd), (32 bytes).
    Removing stm32f4xx_adc.o(i.ADC_VBATCmd), (32 bytes).
    Removing stm32f4xx_can.o(.rev16_text), (4 bytes).
    Removing stm32f4xx_can.o(.revsh_text), (4 bytes).
    Removing stm32f4xx_can.o(.rrx_text), (6 bytes).
    Removing stm32f4xx_can.o(i.CAN_CancelTransmit), (36 bytes).
    Removing stm32f4xx_can.o(i.CAN_ClearFlag), (48 bytes).
    Removing stm32f4xx_can.o(i.CAN_ClearITPendingBit), (120 bytes).
    Removing stm32f4xx_can.o(i.CAN_DBGFreeze), (20 bytes).
    Removing stm32f4xx_can.o(i.CAN_DeInit), (44 bytes).
    Removing stm32f4xx_can.o(i.CAN_FIFORelease), (22 bytes).
    Removing stm32f4xx_can.o(i.CAN_GetFlagStatus), (52 bytes).
    Removing stm32f4xx_can.o(i.CAN_GetITStatus), (168 bytes).
    Removing stm32f4xx_can.o(i.CAN_GetLSBTransmitErrorCounter), (8 bytes).
    Removing stm32f4xx_can.o(i.CAN_GetLastErrorCode), (10 bytes).
    Removing stm32f4xx_can.o(i.CAN_GetReceiveErrorCounter), (6 bytes).
    Removing stm32f4xx_can.o(i.CAN_MessagePending), (22 bytes).
    Removing stm32f4xx_can.o(i.CAN_OperatingModeRequest), (140 bytes).
    Removing stm32f4xx_can.o(i.CAN_SlaveStartBank), (44 bytes).
    Removing stm32f4xx_can.o(i.CAN_Sleep), (30 bytes).
    Removing stm32f4xx_can.o(i.CAN_StructInit), (32 bytes).
    Removing stm32f4xx_can.o(i.CAN_TTComModeCmd), (90 bytes).
    Removing stm32f4xx_can.o(i.CAN_TransmitStatus), (108 bytes).
    Removing stm32f4xx_can.o(i.CAN_WakeUp), (40 bytes).
    Removing stm32f4xx_can.o(i.CheckITStatus), (12 bytes).
    Removing stm32f4xx_dma.o(.rev16_text), (4 bytes).
    Removing stm32f4xx_dma.o(.revsh_text), (4 bytes).
    Removing stm32f4xx_dma.o(.rrx_text), (6 bytes).
    Removing stm32f4xx_dma.o(i.DMA_ClearFlag), (44 bytes).
    Removing stm32f4xx_dma.o(i.DMA_ClearITPendingBit), (44 bytes).
    Removing stm32f4xx_dma.o(i.DMA_Cmd), (20 bytes).
    Removing stm32f4xx_dma.o(i.DMA_DeInit), (292 bytes).
    Removing stm32f4xx_dma.o(i.DMA_DoubleBufferModeCmd), (20 bytes).
    Removing stm32f4xx_dma.o(i.DMA_DoubleBufferModeConfig), (22 bytes).
    Removing stm32f4xx_dma.o(i.DMA_FlowControllerConfig), (20 bytes).
    Removing stm32f4xx_dma.o(i.DMA_GetCmdStatus), (14 bytes).
    Removing stm32f4xx_dma.o(i.DMA_GetCurrDataCounter), (6 bytes).
    Removing stm32f4xx_dma.o(i.DMA_GetCurrentMemoryTarget), (14 bytes).
    Removing stm32f4xx_dma.o(i.DMA_GetFIFOStatus), (8 bytes).
    Removing stm32f4xx_dma.o(i.DMA_GetFlagStatus), (52 bytes).
    Removing stm32f4xx_dma.o(i.DMA_GetITStatus), (84 bytes).
    Removing stm32f4xx_dma.o(i.DMA_ITConfig), (44 bytes).
    Removing stm32f4xx_dma.o(i.DMA_MemoryTargetConfig), (10 bytes).
    Removing stm32f4xx_dma.o(i.DMA_PeriphIncOffsetSizeConfig), (20 bytes).
    Removing stm32f4xx_dma.o(i.DMA_SetCurrDataCounter), (4 bytes).
    Removing stm32f4xx_dma.o(i.DMA_StructInit), (34 bytes).
    Removing stm32f4xx_exti.o(.rev16_text), (4 bytes).
    Removing stm32f4xx_exti.o(.revsh_text), (4 bytes).
    Removing stm32f4xx_exti.o(.rrx_text), (6 bytes).
    Removing stm32f4xx_exti.o(i.EXTI_ClearFlag), (12 bytes).
    Removing stm32f4xx_exti.o(i.EXTI_DeInit), (36 bytes).
    Removing stm32f4xx_exti.o(i.EXTI_GenerateSWInterrupt), (16 bytes).
    Removing stm32f4xx_exti.o(i.EXTI_GetFlagStatus), (20 bytes).
    Removing stm32f4xx_exti.o(i.EXTI_GetITStatus), (20 bytes).
    Removing stm32f4xx_exti.o(i.EXTI_StructInit), (14 bytes).
    Removing stm32f4xx_flash.o(.rev16_text), (4 bytes).
    Removing stm32f4xx_flash.o(.revsh_text), (4 bytes).
    Removing stm32f4xx_flash.o(.rrx_text), (6 bytes).
    Removing stm32f4xx_flash.o(i.FLASH_ClearFlag), (12 bytes).
    Removing stm32f4xx_flash.o(i.FLASH_DataCacheCmd), (28 bytes).
    Removing stm32f4xx_flash.o(i.FLASH_DataCacheReset), (16 bytes).
    Removing stm32f4xx_flash.o(i.FLASH_EraseAllBank1Sectors), (92 bytes).
    Removing stm32f4xx_flash.o(i.FLASH_EraseAllBank2Sectors), (92 bytes).
    Removing stm32f4xx_flash.o(i.FLASH_EraseAllSectors), (92 bytes).
    Removing stm32f4xx_flash.o(i.FLASH_GetFlagStatus), (20 bytes).
    Removing stm32f4xx_flash.o(i.FLASH_ITConfig), (24 bytes).
    Removing stm32f4xx_flash.o(i.FLASH_InstructionCacheCmd), (28 bytes).
    Removing stm32f4xx_flash.o(i.FLASH_InstructionCacheReset), (16 bytes).
    Removing stm32f4xx_flash.o(i.FLASH_OB_BORConfig), (24 bytes).
    Removing stm32f4xx_flash.o(i.FLASH_OB_BootConfig), (24 bytes).
    Removing stm32f4xx_flash.o(i.FLASH_OB_GetBOR), (16 bytes).
    Removing stm32f4xx_flash.o(i.FLASH_OB_GetPCROP), (12 bytes).
    Removing stm32f4xx_flash.o(i.FLASH_OB_GetPCROP1), (12 bytes).
    Removing stm32f4xx_flash.o(i.FLASH_OB_GetRDP), (20 bytes).
    Removing stm32f4xx_flash.o(i.FLASH_OB_GetUser), (16 bytes).
    Removing stm32f4xx_flash.o(i.FLASH_OB_GetWRP), (12 bytes).
    Removing stm32f4xx_flash.o(i.FLASH_OB_GetWRP1), (12 bytes).
    Removing stm32f4xx_flash.o(i.FLASH_OB_Launch), (20 bytes).
    Removing stm32f4xx_flash.o(i.FLASH_OB_Lock), (16 bytes).
    Removing stm32f4xx_flash.o(i.FLASH_OB_PCROP1Config), (36 bytes).
    Removing stm32f4xx_flash.o(i.FLASH_OB_PCROPConfig), (36 bytes).
    Removing stm32f4xx_flash.o(i.FLASH_OB_PCROPSelectionConfig), (20 bytes).
    Removing stm32f4xx_flash.o(i.FLASH_OB_RDPConfig), (24 bytes).
    Removing stm32f4xx_flash.o(i.FLASH_OB_Unlock), (36 bytes).
    Removing stm32f4xx_flash.o(i.FLASH_OB_UserConfig), (40 bytes).
    Removing stm32f4xx_flash.o(i.FLASH_OB_WRP1Config), (36 bytes).
    Removing stm32f4xx_flash.o(i.FLASH_OB_WRPConfig), (36 bytes).
    Removing stm32f4xx_flash.o(i.FLASH_PrefetchBufferCmd), (28 bytes).
    Removing stm32f4xx_flash.o(i.FLASH_ProgramByte), (56 bytes).
    Removing stm32f4xx_flash.o(i.FLASH_ProgramDoubleWord), (64 bytes).
    Removing stm32f4xx_flash.o(i.FLASH_ProgramHalfWord), (60 bytes).
    Removing stm32f4xx_flash.o(i.FLASH_SetLatency), (12 bytes).
    Removing stm32f4xx_gpio.o(.rev16_text), (4 bytes).
    Removing stm32f4xx_gpio.o(.revsh_text), (4 bytes).
    Removing stm32f4xx_gpio.o(.rrx_text), (6 bytes).
    Removing stm32f4xx_gpio.o(i.GPIO_DeInit), (260 bytes).
    Removing stm32f4xx_gpio.o(i.GPIO_PinLockConfig), (24 bytes).
    Removing stm32f4xx_gpio.o(i.GPIO_ReadInputData), (6 bytes).
    Removing stm32f4xx_gpio.o(i.GPIO_ReadInputDataBit), (14 bytes).
    Removing stm32f4xx_gpio.o(i.GPIO_ReadOutputData), (6 bytes).
    Removing stm32f4xx_gpio.o(i.GPIO_ReadOutputDataBit), (14 bytes).
    Removing stm32f4xx_gpio.o(i.GPIO_StructInit), (18 bytes).
    Removing stm32f4xx_gpio.o(i.GPIO_ToggleBits), (8 bytes).
    Removing stm32f4xx_gpio.o(i.GPIO_Write), (4 bytes).
    Removing stm32f4xx_gpio.o(i.GPIO_WriteBit), (10 bytes).
    Removing stm32f4xx_iwdg.o(.rev16_text), (4 bytes).
    Removing stm32f4xx_iwdg.o(.revsh_text), (4 bytes).
    Removing stm32f4xx_iwdg.o(.rrx_text), (6 bytes).
    Removing stm32f4xx_iwdg.o(i.IWDG_Enable), (16 bytes).
    Removing stm32f4xx_iwdg.o(i.IWDG_GetFlagStatus), (20 bytes).
    Removing stm32f4xx_iwdg.o(i.IWDG_ReloadCounter), (16 bytes).
    Removing stm32f4xx_iwdg.o(i.IWDG_SetPrescaler), (12 bytes).
    Removing stm32f4xx_iwdg.o(i.IWDG_SetReload), (12 bytes).
    Removing stm32f4xx_iwdg.o(i.IWDG_WriteAccessCmd), (12 bytes).
    Removing stm32f4xx_pwr.o(.rev16_text), (4 bytes).
    Removing stm32f4xx_pwr.o(.revsh_text), (4 bytes).
    Removing stm32f4xx_pwr.o(.rrx_text), (6 bytes).
    Removing stm32f4xx_pwr.o(i.PWR_BackupAccessCmd), (12 bytes).
    Removing stm32f4xx_pwr.o(i.PWR_BackupRegulatorCmd), (12 bytes).
    Removing stm32f4xx_pwr.o(i.PWR_ClearFlag), (16 bytes).
    Removing stm32f4xx_pwr.o(i.PWR_DeInit), (24 bytes).
    Removing stm32f4xx_pwr.o(i.PWR_EnterSTANDBYMode), (32 bytes).
    Removing stm32f4xx_pwr.o(i.PWR_EnterSTOPMode), (56 bytes).
    Removing stm32f4xx_pwr.o(i.PWR_EnterUnderDriveSTOPMode), (56 bytes).
    Removing stm32f4xx_pwr.o(i.PWR_FlashPowerDownCmd), (12 bytes).
    Removing stm32f4xx_pwr.o(i.PWR_GetFlagStatus), (20 bytes).
    Removing stm32f4xx_pwr.o(i.PWR_MainRegulatorModeConfig), (20 bytes).
    Removing stm32f4xx_pwr.o(i.PWR_OverDriveCmd), (12 bytes).
    Removing stm32f4xx_pwr.o(i.PWR_OverDriveSWCmd), (12 bytes).
    Removing stm32f4xx_pwr.o(i.PWR_PVDCmd), (12 bytes).
    Removing stm32f4xx_pwr.o(i.PWR_PVDLevelConfig), (20 bytes).
    Removing stm32f4xx_pwr.o(i.PWR_UnderDriveCmd), (28 bytes).
    Removing stm32f4xx_pwr.o(i.PWR_WakeUpPinCmd), (12 bytes).
    Removing stm32f4xx_rcc.o(.rev16_text), (4 bytes).
    Removing stm32f4xx_rcc.o(.revsh_text), (4 bytes).
    Removing stm32f4xx_rcc.o(.rrx_text), (6 bytes).
    Removing stm32f4xx_rcc.o(i.RCC_AHB1PeriphClockLPModeCmd), (24 bytes).
    Removing stm32f4xx_rcc.o(i.RCC_AHB1PeriphResetCmd), (24 bytes).
    Removing stm32f4xx_rcc.o(i.RCC_AHB2PeriphClockCmd), (24 bytes).
    Removing stm32f4xx_rcc.o(i.RCC_AHB2PeriphClockLPModeCmd), (24 bytes).
    Removing stm32f4xx_rcc.o(i.RCC_AHB2PeriphResetCmd), (24 bytes).
    Removing stm32f4xx_rcc.o(i.RCC_AHB3PeriphClockCmd), (24 bytes).
    Removing stm32f4xx_rcc.o(i.RCC_AHB3PeriphClockLPModeCmd), (24 bytes).
    Removing stm32f4xx_rcc.o(i.RCC_AHB3PeriphResetCmd), (24 bytes).
    Removing stm32f4xx_rcc.o(i.RCC_APB1PeriphClockLPModeCmd), (24 bytes).
    Removing stm32f4xx_rcc.o(i.RCC_APB2PeriphClockLPModeCmd), (24 bytes).
    Removing stm32f4xx_rcc.o(i.RCC_AdjustHSICalibrationValue), (20 bytes).
    Removing stm32f4xx_rcc.o(i.RCC_BackupResetCmd), (12 bytes).
    Removing stm32f4xx_rcc.o(i.RCC_ClearFlag), (16 bytes).
    Removing stm32f4xx_rcc.o(i.RCC_ClearITPendingBit), (12 bytes).
    Removing stm32f4xx_rcc.o(i.RCC_ClockSecuritySystemCmd), (12 bytes).
    Removing stm32f4xx_rcc.o(i.RCC_DeInit), (84 bytes).
    Removing stm32f4xx_rcc.o(i.RCC_GetITStatus), (20 bytes).
    Removing stm32f4xx_rcc.o(i.RCC_GetSYSCLKSource), (16 bytes).
    Removing stm32f4xx_rcc.o(i.RCC_HCLKConfig), (20 bytes).
    Removing stm32f4xx_rcc.o(i.RCC_HSEConfig), (16 bytes).
    Removing stm32f4xx_rcc.o(i.RCC_HSICmd), (12 bytes).
    Removing stm32f4xx_rcc.o(i.RCC_I2SCLKConfig), (12 bytes).
    Removing stm32f4xx_rcc.o(i.RCC_ITConfig), (24 bytes).
    Removing stm32f4xx_rcc.o(i.RCC_LSEConfig), (28 bytes).
    Removing stm32f4xx_rcc.o(i.RCC_LSEModeConfig), (28 bytes).
    Removing stm32f4xx_rcc.o(i.RCC_LSICmd), (12 bytes).
    Removing stm32f4xx_rcc.o(i.RCC_LTDCCLKDivConfig), (20 bytes).
    Removing stm32f4xx_rcc.o(i.RCC_MCO1Config), (20 bytes).
    Removing stm32f4xx_rcc.o(i.RCC_MCO2Config), (20 bytes).
    Removing stm32f4xx_rcc.o(i.RCC_PCLK1Config), (20 bytes).
    Removing stm32f4xx_rcc.o(i.RCC_PCLK2Config), (20 bytes).
    Removing stm32f4xx_rcc.o(i.RCC_PLLCmd), (12 bytes).
    Removing stm32f4xx_rcc.o(i.RCC_PLLConfig), (40 bytes).
    Removing stm32f4xx_rcc.o(i.RCC_PLLI2SCmd), (12 bytes).
    Removing stm32f4xx_rcc.o(i.RCC_PLLI2SConfig), (16 bytes).
    Removing stm32f4xx_rcc.o(i.RCC_PLLSAICmd), (12 bytes).
    Removing stm32f4xx_rcc.o(i.RCC_PLLSAIConfig), (20 bytes).
    Removing stm32f4xx_rcc.o(i.RCC_RTCCLKCmd), (12 bytes).
    Removing stm32f4xx_rcc.o(i.RCC_RTCCLKConfig), (48 bytes).
    Removing stm32f4xx_rcc.o(i.RCC_SAIBlockACLKConfig), (20 bytes).
    Removing stm32f4xx_rcc.o(i.RCC_SAIBlockBCLKConfig), (20 bytes).
    Removing stm32f4xx_rcc.o(i.RCC_SAIPLLI2SClkDivConfig), (20 bytes).
    Removing stm32f4xx_rcc.o(i.RCC_SAIPLLSAIClkDivConfig), (28 bytes).
    Removing stm32f4xx_rcc.o(i.RCC_SYSCLKConfig), (20 bytes).
    Removing stm32f4xx_rcc.o(i.RCC_TIMCLKPresConfig), (12 bytes).
    Removing stm32f4xx_rcc.o(i.RCC_WaitForHSEStartUp), (44 bytes).
    Removing stm32f4xx_syscfg.o(.rev16_text), (4 bytes).
    Removing stm32f4xx_syscfg.o(.revsh_text), (4 bytes).
    Removing stm32f4xx_syscfg.o(.rrx_text), (6 bytes).
    Removing stm32f4xx_syscfg.o(i.SYSCFG_CompensationCellCmd), (12 bytes).
    Removing stm32f4xx_syscfg.o(i.SYSCFG_DeInit), (24 bytes).
    Removing stm32f4xx_syscfg.o(i.SYSCFG_ETH_MediaInterfaceConfig), (12 bytes).
    Removing stm32f4xx_syscfg.o(i.SYSCFG_GetCompensationCellStatus), (20 bytes).
    Removing stm32f4xx_syscfg.o(i.SYSCFG_MemoryRemapConfig), (12 bytes).
    Removing stm32f4xx_syscfg.o(i.SYSCFG_MemorySwappingBank), (12 bytes).
    Removing stm32f4xx_tim.o(.rev16_text), (4 bytes).
    Removing stm32f4xx_tim.o(.revsh_text), (4 bytes).
    Removing stm32f4xx_tim.o(.rrx_text), (6 bytes).
    Removing stm32f4xx_tim.o(i.TIM_BDTRConfig), (34 bytes).
    Removing stm32f4xx_tim.o(i.TIM_BDTRStructInit), (18 bytes).
    Removing stm32f4xx_tim.o(i.TIM_CCPreloadControl), (20 bytes).
    Removing stm32f4xx_tim.o(i.TIM_CCxCmd), (22 bytes).
    Removing stm32f4xx_tim.o(i.TIM_CCxNCmd), (22 bytes).
    Removing stm32f4xx_tim.o(i.TIM_ClearOC1Ref), (12 bytes).
    Removing stm32f4xx_tim.o(i.TIM_ClearOC2Ref), (20 bytes).
    Removing stm32f4xx_tim.o(i.TIM_ClearOC3Ref), (12 bytes).
    Removing stm32f4xx_tim.o(i.TIM_ClearOC4Ref), (20 bytes).
    Removing stm32f4xx_tim.o(i.TIM_CounterModeConfig), (12 bytes).
    Removing stm32f4xx_tim.o(i.TIM_CtrlPWMOutputs), (22 bytes).
    Removing stm32f4xx_tim.o(i.TIM_DMACmd), (16 bytes).
    Removing stm32f4xx_tim.o(i.TIM_DMAConfig), (8 bytes).
    Removing stm32f4xx_tim.o(i.TIM_DeInit), (336 bytes).
    Removing stm32f4xx_tim.o(i.TIM_ETRClockMode1Config), (18 bytes).
    Removing stm32f4xx_tim.o(i.TIM_ETRClockMode2Config), (18 bytes).
    Removing stm32f4xx_tim.o(i.TIM_ETRConfig), (24 bytes).
    Removing stm32f4xx_tim.o(i.TIM_ForcedOC1Config), (12 bytes).
    Removing stm32f4xx_tim.o(i.TIM_ForcedOC2Config), (20 bytes).
    Removing stm32f4xx_tim.o(i.TIM_ForcedOC3Config), (12 bytes).
    Removing stm32f4xx_tim.o(i.TIM_ForcedOC4Config), (20 bytes).
    Removing stm32f4xx_tim.o(i.TIM_GenerateEvent), (4 bytes).
    Removing stm32f4xx_tim.o(i.TIM_GetCapture1), (4 bytes).
    Removing stm32f4xx_tim.o(i.TIM_GetCapture2), (4 bytes).
    Removing stm32f4xx_tim.o(i.TIM_GetCapture3), (4 bytes).
    Removing stm32f4xx_tim.o(i.TIM_GetCapture4), (4 bytes).
    Removing stm32f4xx_tim.o(i.TIM_GetCounter), (4 bytes).
    Removing stm32f4xx_tim.o(i.TIM_GetFlagStatus), (14 bytes).
    Removing stm32f4xx_tim.o(i.TIM_GetPrescaler), (4 bytes).
    Removing stm32f4xx_tim.o(i.TIM_ITRxExternalClockConfig), (18 bytes).
    Removing stm32f4xx_tim.o(i.TIM_InternalClockConfig), (10 bytes).
    Removing stm32f4xx_tim.o(i.TIM_OC1FastConfig), (12 bytes).
    Removing stm32f4xx_tim.o(i.TIM_OC1Init), (96 bytes).
    Removing stm32f4xx_tim.o(i.TIM_OC1NPolarityConfig), (12 bytes).
    Removing stm32f4xx_tim.o(i.TIM_OC1PolarityConfig), (12 bytes).
    Removing stm32f4xx_tim.o(i.TIM_OC1PreloadConfig), (12 bytes).
    Removing stm32f4xx_tim.o(i.TIM_OC2FastConfig), (20 bytes).
    Removing stm32f4xx_tim.o(i.TIM_OC2NPolarityConfig), (20 bytes).
    Removing stm32f4xx_tim.o(i.TIM_OC2PolarityConfig), (20 bytes).
    Removing stm32f4xx_tim.o(i.TIM_OC3FastConfig), (12 bytes).
    Removing stm32f4xx_tim.o(i.TIM_OC3Init), (124 bytes).
    Removing stm32f4xx_tim.o(i.TIM_OC3NPolarityConfig), (20 bytes).
    Removing stm32f4xx_tim.o(i.TIM_OC3PolarityConfig), (20 bytes).
    Removing stm32f4xx_tim.o(i.TIM_OC3PreloadConfig), (12 bytes).
    Removing stm32f4xx_tim.o(i.TIM_OC4FastConfig), (20 bytes).
    Removing stm32f4xx_tim.o(i.TIM_OC4Init), (96 bytes).
    Removing stm32f4xx_tim.o(i.TIM_OC4PolarityConfig), (20 bytes).
    Removing stm32f4xx_tim.o(i.TIM_OC4PreloadConfig), (20 bytes).
    Removing stm32f4xx_tim.o(i.TIM_OCStructInit), (20 bytes).
    Removing stm32f4xx_tim.o(i.TIM_PWMIConfig), (108 bytes).
    Removing stm32f4xx_tim.o(i.TIM_PrescalerConfig), (6 bytes).
    Removing stm32f4xx_tim.o(i.TIM_RemapConfig), (6 bytes).
    Removing stm32f4xx_tim.o(i.TIM_SelectCCDMA), (20 bytes).
    Removing stm32f4xx_tim.o(i.TIM_SelectCOM), (20 bytes).
    Removing stm32f4xx_tim.o(i.TIM_SelectHallSensor), (20 bytes).
    Removing stm32f4xx_tim.o(i.TIM_SelectInputTrigger), (12 bytes).
    Removing stm32f4xx_tim.o(i.TIM_SelectMasterSlaveMode), (16 bytes).
    Removing stm32f4xx_tim.o(i.TIM_SelectOCxM), (74 bytes).
    Removing stm32f4xx_tim.o(i.TIM_SelectOnePulseMode), (16 bytes).
    Removing stm32f4xx_tim.o(i.TIM_SelectOutputTrigger), (16 bytes).
    Removing stm32f4xx_tim.o(i.TIM_SelectSlaveMode), (16 bytes).
    Removing stm32f4xx_tim.o(i.TIM_SetClockDivision), (16 bytes).
    Removing stm32f4xx_tim.o(i.TIM_SetCompare1), (4 bytes).
    Removing stm32f4xx_tim.o(i.TIM_SetCompare3), (4 bytes).
    Removing stm32f4xx_tim.o(i.TIM_SetCompare4), (4 bytes).
    Removing stm32f4xx_tim.o(i.TIM_TIxExternalClockConfig), (46 bytes).
    Removing stm32f4xx_tim.o(i.TIM_UpdateDisableConfig), (20 bytes).
    Removing stm32f4xx_usart.o(.rev16_text), (4 bytes).
    Removing stm32f4xx_usart.o(.revsh_text), (4 bytes).
    Removing stm32f4xx_usart.o(.rrx_text), (6 bytes).
    Removing stm32f4xx_usart.o(i.USART_ClearFlag), (6 bytes).
    Removing stm32f4xx_usart.o(i.USART_ClearITPendingBit), (12 bytes).
    Removing stm32f4xx_usart.o(i.USART_ClockInit), (28 bytes).
    Removing stm32f4xx_usart.o(i.USART_ClockStructInit), (12 bytes).
    Removing stm32f4xx_usart.o(i.USART_Cmd), (20 bytes).
    Removing stm32f4xx_usart.o(i.USART_DMACmd), (16 bytes).
    Removing stm32f4xx_usart.o(i.USART_GetFlagStatus), (14 bytes).
    Removing stm32f4xx_usart.o(i.USART_GetITStatus), (62 bytes).
    Removing stm32f4xx_usart.o(i.USART_HalfDuplexCmd), (20 bytes).
    Removing stm32f4xx_usart.o(i.USART_ITConfig), (48 bytes).
    Removing stm32f4xx_usart.o(i.USART_IrDACmd), (20 bytes).
    Removing stm32f4xx_usart.o(i.USART_IrDAConfig), (16 bytes).
    Removing stm32f4xx_usart.o(i.USART_LINBreakDetectLengthConfig), (16 bytes).
    Removing stm32f4xx_usart.o(i.USART_LINCmd), (20 bytes).
    Removing stm32f4xx_usart.o(i.USART_OneBitMethodCmd), (20 bytes).
    Removing stm32f4xx_usart.o(i.USART_OverSampling8Cmd), (20 bytes).
    Removing stm32f4xx_usart.o(i.USART_ReceiveData), (8 bytes).
    Removing stm32f4xx_usart.o(i.USART_ReceiverWakeUpCmd), (20 bytes).
    Removing stm32f4xx_usart.o(i.USART_SendBreak), (10 bytes).
    Removing stm32f4xx_usart.o(i.USART_SendData), (8 bytes).
    Removing stm32f4xx_usart.o(i.USART_SetAddress), (16 bytes).
    Removing stm32f4xx_usart.o(i.USART_SetGuardTime), (16 bytes).
    Removing stm32f4xx_usart.o(i.USART_SetPrescaler), (16 bytes).
    Removing stm32f4xx_usart.o(i.USART_SmartCardCmd), (20 bytes).
    Removing stm32f4xx_usart.o(i.USART_SmartCardNACKCmd), (20 bytes).
    Removing stm32f4xx_usart.o(i.USART_StructInit), (22 bytes).
    Removing stm32f4xx_usart.o(i.USART_WakeUpConfig), (16 bytes).
    Removing stm32f4xx_wwdg.o(.rev16_text), (4 bytes).
    Removing stm32f4xx_wwdg.o(.revsh_text), (4 bytes).
    Removing stm32f4xx_wwdg.o(.rrx_text), (6 bytes).
    Removing stm32f4xx_wwdg.o(i.WWDG_ClearFlag), (12 bytes).
    Removing stm32f4xx_wwdg.o(i.WWDG_DeInit), (24 bytes).
    Removing stm32f4xx_wwdg.o(i.WWDG_Enable), (16 bytes).
    Removing stm32f4xx_wwdg.o(i.WWDG_EnableIT), (16 bytes).
    Removing stm32f4xx_wwdg.o(i.WWDG_GetFlagStatus), (20 bytes).
    Removing stm32f4xx_wwdg.o(i.WWDG_SetCounter), (16 bytes).
    Removing stm32f4xx_wwdg.o(i.WWDG_SetPrescaler), (20 bytes).
    Removing stm32f4xx_wwdg.o(i.WWDG_SetWindowValue), (28 bytes).
    Removing main.o(.rev16_text), (4 bytes).
    Removing main.o(.revsh_text), (4 bytes).
    Removing main.o(.rrx_text), (6 bytes).
    Removing main.o(.data), (1 bytes).
    Removing stm32fxxx_it.o(.rev16_text), (4 bytes).
    Removing stm32fxxx_it.o(.revsh_text), (4 bytes).
    Removing stm32fxxx_it.o(.rrx_text), (6 bytes).
    Removing delay.o(.rev16_text), (4 bytes).
    Removing delay.o(.revsh_text), (4 bytes).
    Removing delay.o(.rrx_text), (6 bytes).
    Removing delay.o(i.delay_init), (44 bytes).
    Removing delay.o(i.delay_ms), (52 bytes).
    Removing delay.o(i.delay_us), (40 bytes).
    Removing delay.o(i.delay_xms), (40 bytes).
    Removing delay.o(.data), (4 bytes).
    Removing usart.o(.rev16_text), (4 bytes).
    Removing usart.o(.revsh_text), (4 bytes).
    Removing usart.o(.rrx_text), (6 bytes).
    Removing usart.o(i.USART_Configuration), (84 bytes).
    Removing usart.o(i.USART_GPIO_Configuration), (44 bytes).
    Removing usart.o(i.USART_RCC_Configuration), (48 bytes).
    Removing usart.o(i.fputc), (36 bytes).
    Removing can.o(.rev16_text), (4 bytes).
    Removing can.o(.revsh_text), (4 bytes).
    Removing can.o(.rrx_text), (6 bytes).
    Removing coder.o(.rev16_text), (4 bytes).
    Removing coder.o(.revsh_text), (4 bytes).
    Removing coder.o(.rrx_text), (6 bytes).
    Removing coder.o(i.Encoder_Init_TIM2), (184 bytes).
    Removing microstepdriver.o(.rev16_text), (4 bytes).
    Removing microstepdriver.o(.revsh_text), (4 bytes).
    Removing microstepdriver.o(.rrx_text), (6 bytes).
    Removing microstepdriver.o(i.MSD_ENA), (72 bytes).
    Removing microstepdriver.o(.conststring), (143 bytes).
    Removing msd_test.o(.rev16_text), (4 bytes).
    Removing msd_test.o(.revsh_text), (4 bytes).
    Removing msd_test.o(.rrx_text), (6 bytes).
    Removing one_dimension_code.o(.rev16_text), (4 bytes).
    Removing one_dimension_code.o(.revsh_text), (4 bytes).
    Removing one_dimension_code.o(.rrx_text), (6 bytes).
    Removing one_dimension_code.o(i.one_dimension_code_start), (12 bytes).
    Removing one_dimension_code.o(.bss), (200 bytes).
    Removing one_dimension_code.o(.data), (1 bytes).
    Removing usart_screen.o(.rev16_text), (4 bytes).
    Removing usart_screen.o(.revsh_text), (4 bytes).
    Removing usart_screen.o(.rrx_text), (6 bytes).
    Removing stmflash.o(.rev16_text), (4 bytes).
    Removing stmflash.o(.revsh_text), (4 bytes).
    Removing stmflash.o(.rrx_text), (6 bytes).
    Removing stmflash.o(i.STMFLASH_ReadWord), (4 bytes).
    Removing stmflash.o(i.position_init_to_flash), (132 bytes).
    Removing buzzer.o(.rev16_text), (4 bytes).
    Removing buzzer.o(.revsh_text), (4 bytes).
    Removing buzzer.o(.rrx_text), (6 bytes).
    Removing notification.o(.rev16_text), (4 bytes).
    Removing notification.o(.revsh_text), (4 bytes).
    Removing notification.o(.rrx_text), (6 bytes).
    Removing notification.o(i.LED_TOGGLE), (36 bytes).
    Removing mission.o(.rev16_text), (4 bytes).
    Removing mission.o(.revsh_text), (4 bytes).
    Removing mission.o(.rrx_text), (6 bytes).
    Removing cooler.o(.rev16_text), (4 bytes).
    Removing cooler.o(.revsh_text), (4 bytes).
    Removing cooler.o(.rrx_text), (6 bytes).
    Removing adc.o(.rev16_text), (4 bytes).
    Removing adc.o(.revsh_text), (4 bytes).
    Removing adc.o(.rrx_text), (6 bytes).
    Removing adc.o(i.Adc_Init), (136 bytes).
    Removing adc.o(i.Get_Adc_v), (64 bytes).
    Removing b3470.o(.rev16_text), (4 bytes).
    Removing b3470.o(.revsh_text), (4 bytes).
    Removing b3470.o(.rrx_text), (6 bytes).
    Removing b3470.o(i.b3470_get_temperature), (14 bytes).
    Removing temp_control.o(.rev16_text), (4 bytes).
    Removing temp_control.o(.revsh_text), (4 bytes).
    Removing temp_control.o(.rrx_text), (6 bytes).
    Removing temp_control.o(.data), (4 bytes).
    Removing wwdg.o(.rev16_text), (4 bytes).
    Removing wwdg.o(.revsh_text), (4 bytes).
    Removing wwdg.o(.rrx_text), (6 bytes).
    Removing system_stm32f4xx.o(.rev16_text), (4 bytes).
    Removing system_stm32f4xx.o(.revsh_text), (4 bytes).
    Removing system_stm32f4xx.o(.rrx_text), (6 bytes).
    Removing system_stm32f4xx.o(i.SystemCoreClockUpdate), (120 bytes).
    Removing startup_stm32f40_41xxx.o(HEAP), (512 bytes).
    Removing tm_stm32f4_dma.o(.rev16_text), (4 bytes).
    Removing tm_stm32f4_dma.o(.revsh_text), (4 bytes).
    Removing tm_stm32f4_dma.o(.rrx_text), (6 bytes).
    Removing tm_stm32f4_dma.o(i.TM_DMA_DisableInterrupts), (88 bytes).
    Removing tm_stm32f4_dma.o(i.TM_DMA_EnableInterrupts), (104 bytes).
    Removing tm_stm32f4_gpio.o(.rev16_text), (4 bytes).
    Removing tm_stm32f4_gpio.o(.revsh_text), (4 bytes).
    Removing tm_stm32f4_gpio.o(.rrx_text), (6 bytes).
    Removing tm_stm32f4_gpio.o(i.TM_GPIO_DeInit), (72 bytes).
    Removing tm_stm32f4_gpio.o(i.TM_GPIO_GetFreePins), (24 bytes).
    Removing tm_stm32f4_gpio.o(i.TM_GPIO_GetPinSource), (18 bytes).
    Removing tm_stm32f4_gpio.o(i.TM_GPIO_GetUsedPins), (20 bytes).
    Removing tm_stm32f4_gpio.o(i.TM_GPIO_INT_DisableClock), (24 bytes).
    Removing tm_stm32f4_gpio.o(i.TM_GPIO_Lock), (16 bytes).
    Removing tm_stm32f4_gpio.o(i.TM_GPIO_SetPinAsAlternate), (48 bytes).
    Removing tm_stm32f4_gpio.o(i.TM_GPIO_SetPinAsAnalog), (38 bytes).
    Removing tm_stm32f4_gpio.o(i.TM_GPIO_SetPinAsInput), (38 bytes).
    Removing tm_stm32f4_gpio.o(i.TM_GPIO_SetPinAsOutput), (46 bytes).
    Removing tm_stm32f4_gpio.o(i.TM_GPIO_SetPullResistor), (46 bytes).
    Removing tm_stm32f4_usart_dma.o(.rev16_text), (4 bytes).
    Removing tm_stm32f4_usart_dma.o(.revsh_text), (4 bytes).
    Removing tm_stm32f4_usart_dma.o(.rrx_text), (6 bytes).
    Removing tm_stm32f4_usart_dma.o(i.TM_USART_DMA_Deinit), (16 bytes).
    Removing tm_stm32f4_usart_dma.o(i.TM_USART_DMA_DisableInterrupts), (16 bytes).
    Removing tm_stm32f4_usart_dma.o(i.TM_USART_DMA_EnableInterrupts), (16 bytes).
    Removing tm_stm32f4_usart_dma.o(i.TM_USART_DMA_GetStream), (10 bytes).
    Removing tm_stm32f4_usart_dma.o(i.TM_USART_DMA_InitWithStreamAndChannel), (26 bytes).
    Removing tm_stm32f4_usart_dma.o(i.TM_USART_DMA_Puts), (26 bytes).
    Removing tm_stm32f4_usart_dma.o(i.TM_USART_DMA_Sending), (28 bytes).
    Removing tm_stm32f4_usart.o(.rev16_text), (4 bytes).
    Removing tm_stm32f4_usart.o(.revsh_text), (4 bytes).
    Removing tm_stm32f4_usart.o(.rrx_text), (6 bytes).
    Removing tm_stm32f4_usart.o(i.TM_USART_BufferEmpty), (26 bytes).
    Removing tm_stm32f4_usart.o(i.TM_USART_BufferFull), (22 bytes).
    Removing tm_stm32f4_usart.o(i.TM_USART_ClearBuffer), (16 bytes).
    Removing tm_stm32f4_usart.o(i.TM_USART_InitWithFlowControl), (184 bytes).
    Removing tm_stm32f4_usart.o(i.TM_USART_Puts), (48 bytes).
    Removing tm_stm32f4_usart.o(i.TM_USART_Send), (48 bytes).
    Removing tm_stm32f4_usart.o(i.TM_USART_SetCustomStringEndCharacter), (12 bytes).
    Removing tm_stm32f4_watchdog.o(.rev16_text), (4 bytes).
    Removing tm_stm32f4_watchdog.o(.revsh_text), (4 bytes).
    Removing tm_stm32f4_watchdog.o(.rrx_text), (6 bytes).
    Removing dfixul.o(.text), (48 bytes).
    Removing cdcmple.o(.text), (48 bytes).
    Removing cdrcmple.o(.text), (48 bytes).

513 unused section(s) (total 14463 bytes) removed from the image.

==============================================================================

Image Symbol Table

    Local Symbols

    Symbol Name                              Value     Ov Type        Size  Object(Section)

    ../clib/../cmprslib/zerorunl2.c          0x00000000   Number         0  __dczerorl2.o ABSOLUTE
    ../clib/microlib/division.c              0x00000000   Number         0  uidiv.o ABSOLUTE
    ../clib/microlib/division.c              0x00000000   Number         0  uldiv.o ABSOLUTE
    ../clib/microlib/errno.c                 0x00000000   Number         0  errno.o ABSOLUTE
    ../clib/microlib/init/entry.s            0x00000000   Number         0  entry9b.o ABSOLUTE
    ../clib/microlib/init/entry.s            0x00000000   Number         0  entry9a.o ABSOLUTE
    ../clib/microlib/init/entry.s            0x00000000   Number         0  entry2.o ABSOLUTE
    ../clib/microlib/init/entry.s            0x00000000   Number         0  entry7b.o ABSOLUTE
    ../clib/microlib/init/entry.s            0x00000000   Number         0  entry10b.o ABSOLUTE
    ../clib/microlib/init/entry.s            0x00000000   Number         0  entry8b.o ABSOLUTE
    ../clib/microlib/init/entry.s            0x00000000   Number         0  entry11a.o ABSOLUTE
    ../clib/microlib/init/entry.s            0x00000000   Number         0  entry8a.o ABSOLUTE
    ../clib/microlib/init/entry.s            0x00000000   Number         0  entry5.o ABSOLUTE
    ../clib/microlib/init/entry.s            0x00000000   Number         0  entry7a.o ABSOLUTE
    ../clib/microlib/init/entry.s            0x00000000   Number         0  entry11b.o ABSOLUTE
    ../clib/microlib/init/entry.s            0x00000000   Number         0  entry.o ABSOLUTE
    ../clib/microlib/init/entry.s            0x00000000   Number         0  entry10a.o ABSOLUTE
    ../clib/microlib/longlong.c              0x00000000   Number         0  llshl.o ABSOLUTE
    ../clib/microlib/longlong.c              0x00000000   Number         0  llushr.o ABSOLUTE
    ../clib/microlib/longlong.c              0x00000000   Number         0  llsshr.o ABSOLUTE
    ../clib/microlib/printf/printf.c         0x00000000   Number         0  printfb.o ABSOLUTE
    ../clib/microlib/printf/printf.c         0x00000000   Number         0  printf5.o ABSOLUTE
    ../clib/microlib/printf/printf.c         0x00000000   Number         0  printf6.o ABSOLUTE
    ../clib/microlib/printf/printf.c         0x00000000   Number         0  printfa.o ABSOLUTE
    ../clib/microlib/printf/printf.c         0x00000000   Number         0  printf8.o ABSOLUTE
    ../clib/microlib/printf/printf.c         0x00000000   Number         0  printf7.o ABSOLUTE
    ../clib/microlib/printf/printf.c         0x00000000   Number         0  printf4.o ABSOLUTE
    ../clib/microlib/printf/printf.c         0x00000000   Number         0  printf3.o ABSOLUTE
    ../clib/microlib/printf/printf.c         0x00000000   Number         0  printf2.o ABSOLUTE
    ../clib/microlib/printf/printf.c         0x00000000   Number         0  printf1.o ABSOLUTE
    ../clib/microlib/printf/printf.c         0x00000000   Number         0  printf0.o ABSOLUTE
    ../clib/microlib/printf/stubs.s          0x00000000   Number         0  stubs.o ABSOLUTE
    ../clib/microlib/stdio/streams.c         0x00000000   Number         0  stdout.o ABSOLUTE
    ../clib/microlib/string/memcpy.c         0x00000000   Number         0  memcpyb.o ABSOLUTE
    ../clib/microlib/string/memcpy.c         0x00000000   Number         0  memcpya.o ABSOLUTE
    ../clib/microlib/string/strlen.c         0x00000000   Number         0  strlen.o ABSOLUTE
    ../clib/microlib/stubs.s                 0x00000000   Number         0  iusefp.o ABSOLUTE
    ../fplib/microlib/d2f.c                  0x00000000   Number         0  d2f.o ABSOLUTE
    ../fplib/microlib/fpadd.c                0x00000000   Number         0  dadd.o ABSOLUTE
    ../fplib/microlib/fpdiv.c                0x00000000   Number         0  ddiv.o ABSOLUTE
    ../fplib/microlib/fpepilogue.c           0x00000000   Number         0  depilogue.o ABSOLUTE
    ../fplib/microlib/fpepilogue.c           0x00000000   Number         0  fepilogue.o ABSOLUTE
    ../fplib/microlib/fpfix.c                0x00000000   Number         0  dfixui.o ABSOLUTE
    ../fplib/microlib/fpfix.c                0x00000000   Number         0  dfixul.o ABSOLUTE
    ../fplib/microlib/fpflt.c                0x00000000   Number         0  dfltui.o ABSOLUTE
    ../fplib/microlib/fpmul.c                0x00000000   Number         0  dmul.o ABSOLUTE
    ../fplib/microlib/fpsqrt.c               0x00000000   Number         0  dsqrt.o ABSOLUTE
    ../mathlib/sqrt.c                        0x00000000   Number         0  sqrt.o ABSOLUTE
    ../mathlib/sqrt.c                        0x00000000   Number         0  sqrt_x.o ABSOLUTE
    ..\Libraries\CMSIS\Device\ST\STM32F4xx\Source\Templates\arm\startup_stm32f40_41xxx.s 0x00000000   Number         0  startup_stm32f40_41xxx.o ABSOLUTE
    ..\Libraries\STM32F4xx_StdPeriph_Driver\src\misc.c 0x00000000   Number         0  misc.o ABSOLUTE
    ..\Libraries\STM32F4xx_StdPeriph_Driver\src\stm32f4xx_adc.c 0x00000000   Number         0  stm32f4xx_adc.o ABSOLUTE
    ..\Libraries\STM32F4xx_StdPeriph_Driver\src\stm32f4xx_can.c 0x00000000   Number         0  stm32f4xx_can.o ABSOLUTE
    ..\Libraries\STM32F4xx_StdPeriph_Driver\src\stm32f4xx_dma.c 0x00000000   Number         0  stm32f4xx_dma.o ABSOLUTE
    ..\Libraries\STM32F4xx_StdPeriph_Driver\src\stm32f4xx_exti.c 0x00000000   Number         0  stm32f4xx_exti.o ABSOLUTE
    ..\Libraries\STM32F4xx_StdPeriph_Driver\src\stm32f4xx_flash.c 0x00000000   Number         0  stm32f4xx_flash.o ABSOLUTE
    ..\Libraries\STM32F4xx_StdPeriph_Driver\src\stm32f4xx_gpio.c 0x00000000   Number         0  stm32f4xx_gpio.o ABSOLUTE
    ..\Libraries\STM32F4xx_StdPeriph_Driver\src\stm32f4xx_iwdg.c 0x00000000   Number         0  stm32f4xx_iwdg.o ABSOLUTE
    ..\Libraries\STM32F4xx_StdPeriph_Driver\src\stm32f4xx_pwr.c 0x00000000   Number         0  stm32f4xx_pwr.o ABSOLUTE
    ..\Libraries\STM32F4xx_StdPeriph_Driver\src\stm32f4xx_rcc.c 0x00000000   Number         0  stm32f4xx_rcc.o ABSOLUTE
    ..\Libraries\STM32F4xx_StdPeriph_Driver\src\stm32f4xx_syscfg.c 0x00000000   Number         0  stm32f4xx_syscfg.o ABSOLUTE
    ..\Libraries\STM32F4xx_StdPeriph_Driver\src\stm32f4xx_tim.c 0x00000000   Number         0  stm32f4xx_tim.o ABSOLUTE
    ..\Libraries\STM32F4xx_StdPeriph_Driver\src\stm32f4xx_usart.c 0x00000000   Number         0  stm32f4xx_usart.o ABSOLUTE
    ..\Libraries\STM32F4xx_StdPeriph_Driver\src\stm32f4xx_wwdg.c 0x00000000   Number         0  stm32f4xx_wwdg.o ABSOLUTE
    ..\Libraries\STM32_USB_Device_Library\Class\cdc\src\usbd_cdc_core.c 0x00000000   Number         0  usbd_cdc_core.o ABSOLUTE
    ..\Libraries\STM32_USB_Device_Library\Core\src\usbd_core.c 0x00000000   Number         0  usbd_core.o ABSOLUTE
    ..\Libraries\STM32_USB_Device_Library\Core\src\usbd_ioreq.c 0x00000000   Number         0  usbd_ioreq.o ABSOLUTE
    ..\Libraries\STM32_USB_Device_Library\Core\src\usbd_req.c 0x00000000   Number         0  usbd_req.o ABSOLUTE
    ..\Libraries\STM32_USB_OTG_Driver\src\usb_core.c 0x00000000   Number         0  usb_core.o ABSOLUTE
    ..\Libraries\STM32_USB_OTG_Driver\src\usb_dcd.c 0x00000000   Number         0  usb_dcd.o ABSOLUTE
    ..\Libraries\STM32_USB_OTG_Driver\src\usb_dcd_int.c 0x00000000   Number         0  usb_dcd_int.o ABSOLUTE
    ..\Libraries\TM_library\tm_stm32f4_dma.c 0x00000000   Number         0  tm_stm32f4_dma.o ABSOLUTE
    ..\Libraries\TM_library\tm_stm32f4_gpio.c 0x00000000   Number         0  tm_stm32f4_gpio.o ABSOLUTE
    ..\Libraries\TM_library\tm_stm32f4_usart.c 0x00000000   Number         0  tm_stm32f4_usart.o ABSOLUTE
    ..\Libraries\TM_library\tm_stm32f4_usart_dma.c 0x00000000   Number         0  tm_stm32f4_usart_dma.o ABSOLUTE
    ..\Libraries\TM_library\tm_stm32f4_watchdog.c 0x00000000   Number         0  tm_stm32f4_watchdog.o ABSOLUTE
    ..\Source\BUZZER.c                       0x00000000   Number         0  buzzer.o ABSOLUTE
    ..\Source\MSD_test.c                     0x00000000   Number         0  msd_test.o ABSOLUTE
    ..\Source\MicroStepDriver.c              0x00000000   Number         0  microstepdriver.o ABSOLUTE
    ..\Source\USB\usb_bsp.c                  0x00000000   Number         0  usb_bsp.o ABSOLUTE
    ..\Source\USB\usbd_desc.c                0x00000000   Number         0  usbd_desc.o ABSOLUTE
    ..\Source\USB\usbd_usr.c                 0x00000000   Number         0  usbd_usr.o ABSOLUTE
    ..\Source\adc.c                          0x00000000   Number         0  adc.o ABSOLUTE
    ..\Source\b3470.c                        0x00000000   Number         0  b3470.o ABSOLUTE
    ..\Source\can.c                          0x00000000   Number         0  can.o ABSOLUTE
    ..\Source\coder.c                        0x00000000   Number         0  coder.o ABSOLUTE
    ..\Source\cooler.c                       0x00000000   Number         0  cooler.o ABSOLUTE
    ..\Source\delay.c                        0x00000000   Number         0  delay.o ABSOLUTE
    ..\Source\main.c                         0x00000000   Number         0  main.o ABSOLUTE
    ..\Source\mission.c                      0x00000000   Number         0  mission.o ABSOLUTE
    ..\Source\notification.c                 0x00000000   Number         0  notification.o ABSOLUTE
    ..\Source\one_dimension_code.c           0x00000000   Number         0  one_dimension_code.o ABSOLUTE
    ..\Source\stm32fxxx_it.c                 0x00000000   Number         0  stm32fxxx_it.o ABSOLUTE
    ..\Source\stmflash.c                     0x00000000   Number         0  stmflash.o ABSOLUTE
    ..\Source\system_stm32f4xx.c             0x00000000   Number         0  system_stm32f4xx.o ABSOLUTE
    ..\Source\temp_control.c                 0x00000000   Number         0  temp_control.o ABSOLUTE
    ..\Source\usart.c                        0x00000000   Number         0  usart.o ABSOLUTE
    ..\Source\usart_screen.c                 0x00000000   Number         0  usart_screen.o ABSOLUTE
    ..\Source\wwdg.c                         0x00000000   Number         0  wwdg.o ABSOLUTE
    ..\\Libraries\\STM32F4xx_StdPeriph_Driver\\src\\misc.c 0x00000000   Number         0  misc.o ABSOLUTE
    ..\\Libraries\\STM32F4xx_StdPeriph_Driver\\src\\stm32f4xx_adc.c 0x00000000   Number         0  stm32f4xx_adc.o ABSOLUTE
    ..\\Libraries\\STM32F4xx_StdPeriph_Driver\\src\\stm32f4xx_can.c 0x00000000   Number         0  stm32f4xx_can.o ABSOLUTE
    ..\\Libraries\\STM32F4xx_StdPeriph_Driver\\src\\stm32f4xx_dma.c 0x00000000   Number         0  stm32f4xx_dma.o ABSOLUTE
    ..\\Libraries\\STM32F4xx_StdPeriph_Driver\\src\\stm32f4xx_exti.c 0x00000000   Number         0  stm32f4xx_exti.o ABSOLUTE
    ..\\Libraries\\STM32F4xx_StdPeriph_Driver\\src\\stm32f4xx_flash.c 0x00000000   Number         0  stm32f4xx_flash.o ABSOLUTE
    ..\\Libraries\\STM32F4xx_StdPeriph_Driver\\src\\stm32f4xx_gpio.c 0x00000000   Number         0  stm32f4xx_gpio.o ABSOLUTE
    ..\\Libraries\\STM32F4xx_StdPeriph_Driver\\src\\stm32f4xx_iwdg.c 0x00000000   Number         0  stm32f4xx_iwdg.o ABSOLUTE
    ..\\Libraries\\STM32F4xx_StdPeriph_Driver\\src\\stm32f4xx_pwr.c 0x00000000   Number         0  stm32f4xx_pwr.o ABSOLUTE
    ..\\Libraries\\STM32F4xx_StdPeriph_Driver\\src\\stm32f4xx_rcc.c 0x00000000   Number         0  stm32f4xx_rcc.o ABSOLUTE
    ..\\Libraries\\STM32F4xx_StdPeriph_Driver\\src\\stm32f4xx_syscfg.c 0x00000000   Number         0  stm32f4xx_syscfg.o ABSOLUTE
    ..\\Libraries\\STM32F4xx_StdPeriph_Driver\\src\\stm32f4xx_tim.c 0x00000000   Number         0  stm32f4xx_tim.o ABSOLUTE
    ..\\Libraries\\STM32F4xx_StdPeriph_Driver\\src\\stm32f4xx_usart.c 0x00000000   Number         0  stm32f4xx_usart.o ABSOLUTE
    ..\\Libraries\\STM32F4xx_StdPeriph_Driver\\src\\stm32f4xx_wwdg.c 0x00000000   Number         0  stm32f4xx_wwdg.o ABSOLUTE
    ..\\Libraries\\STM32_USB_Device_Library\\Class\\cdc\\src\\usbd_cdc_core.c 0x00000000   Number         0  usbd_cdc_core.o ABSOLUTE
    ..\\Libraries\\STM32_USB_Device_Library\\Core\\src\\usbd_core.c 0x00000000   Number         0  usbd_core.o ABSOLUTE
    ..\\Libraries\\STM32_USB_Device_Library\\Core\\src\\usbd_ioreq.c 0x00000000   Number         0  usbd_ioreq.o ABSOLUTE
    ..\\Libraries\\STM32_USB_Device_Library\\Core\\src\\usbd_req.c 0x00000000   Number         0  usbd_req.o ABSOLUTE
    ..\\Libraries\\STM32_USB_OTG_Driver\\src\\usb_core.c 0x00000000   Number         0  usb_core.o ABSOLUTE
    ..\\Libraries\\STM32_USB_OTG_Driver\\src\\usb_dcd.c 0x00000000   Number         0  usb_dcd.o ABSOLUTE
    ..\\Libraries\\STM32_USB_OTG_Driver\\src\\usb_dcd_int.c 0x00000000   Number         0  usb_dcd_int.o ABSOLUTE
    ..\\Libraries\\TM_library\\tm_stm32f4_dma.c 0x00000000   Number         0  tm_stm32f4_dma.o ABSOLUTE
    ..\\Libraries\\TM_library\\tm_stm32f4_gpio.c 0x00000000   Number         0  tm_stm32f4_gpio.o ABSOLUTE
    ..\\Libraries\\TM_library\\tm_stm32f4_usart.c 0x00000000   Number         0  tm_stm32f4_usart.o ABSOLUTE
    ..\\Libraries\\TM_library\\tm_stm32f4_usart_dma.c 0x00000000   Number         0  tm_stm32f4_usart_dma.o ABSOLUTE
    ..\\Libraries\\TM_library\\tm_stm32f4_watchdog.c 0x00000000   Number         0  tm_stm32f4_watchdog.o ABSOLUTE
    ..\\Source\\BUZZER.c                     0x00000000   Number         0  buzzer.o ABSOLUTE
    ..\\Source\\MSD_test.c                   0x00000000   Number         0  msd_test.o ABSOLUTE
    ..\\Source\\MicroStepDriver.c            0x00000000   Number         0  microstepdriver.o ABSOLUTE
    ..\\Source\\USB\\usb_bsp.c               0x00000000   Number         0  usb_bsp.o ABSOLUTE
    ..\\Source\\USB\\usbd_desc.c             0x00000000   Number         0  usbd_desc.o ABSOLUTE
    ..\\Source\\USB\\usbd_usr.c              0x00000000   Number         0  usbd_usr.o ABSOLUTE
    ..\\Source\\adc.c                        0x00000000   Number         0  adc.o ABSOLUTE
    ..\\Source\\b3470.c                      0x00000000   Number         0  b3470.o ABSOLUTE
    ..\\Source\\can.c                        0x00000000   Number         0  can.o ABSOLUTE
    ..\\Source\\coder.c                      0x00000000   Number         0  coder.o ABSOLUTE
    ..\\Source\\cooler.c                     0x00000000   Number         0  cooler.o ABSOLUTE
    ..\\Source\\delay.c                      0x00000000   Number         0  delay.o ABSOLUTE
    ..\\Source\\main.c                       0x00000000   Number         0  main.o ABSOLUTE
    ..\\Source\\mission.c                    0x00000000   Number         0  mission.o ABSOLUTE
    ..\\Source\\notification.c               0x00000000   Number         0  notification.o ABSOLUTE
    ..\\Source\\one_dimension_code.c         0x00000000   Number         0  one_dimension_code.o ABSOLUTE
    ..\\Source\\stm32fxxx_it.c               0x00000000   Number         0  stm32fxxx_it.o ABSOLUTE
    ..\\Source\\stmflash.c                   0x00000000   Number         0  stmflash.o ABSOLUTE
    ..\\Source\\system_stm32f4xx.c           0x00000000   Number         0  system_stm32f4xx.o ABSOLUTE
    ..\\Source\\temp_control.c               0x00000000   Number         0  temp_control.o ABSOLUTE
    ..\\Source\\usart.c                      0x00000000   Number         0  usart.o ABSOLUTE
    ..\\Source\\usart_screen.c               0x00000000   Number         0  usart_screen.o ABSOLUTE
    ..\\Source\\wwdg.c                       0x00000000   Number         0  wwdg.o ABSOLUTE
    cdcmple.s                                0x00000000   Number         0  cdcmple.o ABSOLUTE
    cdrcmple.s                               0x00000000   Number         0  cdrcmple.o ABSOLUTE
    dc.s                                     0x00000000   Number         0  dc.o ABSOLUTE
    handlers.s                               0x00000000   Number         0  handlers.o ABSOLUTE
    init.s                                   0x00000000   Number         0  init.o ABSOLUTE
    RESET                                    0x08000000   Section      392  startup_stm32f40_41xxx.o(RESET)
    .ARM.Collect$$$$00000000                 0x08000188   Section        0  entry.o(.ARM.Collect$$$$00000000)
    .ARM.Collect$$$$00000001                 0x08000188   Section        4  entry2.o(.ARM.Collect$$$$00000001)
    .ARM.Collect$$$$00000004                 0x0800018c   Section        4  entry5.o(.ARM.Collect$$$$00000004)
    .ARM.Collect$$$$00000008                 0x08000190   Section        0  entry7b.o(.ARM.Collect$$$$00000008)
    .ARM.Collect$$$$0000000A                 0x08000190   Section        0  entry8b.o(.ARM.Collect$$$$0000000A)
    .ARM.Collect$$$$0000000B                 0x08000190   Section        8  entry9a.o(.ARM.Collect$$$$0000000B)
    .ARM.Collect$$$$0000000D                 0x08000198   Section        0  entry10a.o(.ARM.Collect$$$$0000000D)
    .ARM.Collect$$$$0000000F                 0x08000198   Section        0  entry11a.o(.ARM.Collect$$$$0000000F)
    .ARM.Collect$$$$00002712                 0x08000198   Section        4  entry2.o(.ARM.Collect$$$$00002712)
    __lit__00000000                          0x08000198   Data           4  entry2.o(.ARM.Collect$$$$00002712)
    .text                                    0x0800019c   Section       36  startup_stm32f40_41xxx.o(.text)
    $v0                                      0x0800019c   Number         0  startup_stm32f40_41xxx.o(.text)
    .text                                    0x080001c0   Section        0  memcpya.o(.text)
    .text                                    0x080001e4   Section        0  dadd.o(.text)
    .text                                    0x08000332   Section        0  dmul.o(.text)
    .text                                    0x08000416   Section        0  ddiv.o(.text)
    .text                                    0x080004f4   Section        0  dfltui.o(.text)
    .text                                    0x0800050e   Section        0  dfixui.o(.text)
    .text                                    0x08000540   Section        0  d2f.o(.text)
    .text                                    0x08000578   Section        0  uldiv.o(.text)
    .text                                    0x080005da   Section        0  llshl.o(.text)
    .text                                    0x080005f8   Section        0  llushr.o(.text)
    .text                                    0x08000618   Section        0  llsshr.o(.text)
    .text                                    0x0800063c   Section        0  iusefp.o(.text)
    .text                                    0x0800063c   Section        0  fepilogue.o(.text)
    .text                                    0x080006aa   Section        0  depilogue.o(.text)
    .text                                    0x08000764   Section        0  dsqrt.o(.text)
    .text                                    0x08000808   Section       36  init.o(.text)
    .text                                    0x0800082c   Section        0  __dczerorl2.o(.text)
    i.ADC_Cmd                                0x08000882   Section        0  stm32f4xx_adc.o(i.ADC_Cmd)
    i.ADC_CommonInit                         0x08000898   Section        0  stm32f4xx_adc.o(i.ADC_CommonInit)
    i.ADC_GetConversionValue                 0x080008c4   Section        0  stm32f4xx_adc.o(i.ADC_GetConversionValue)
    i.ADC_GetFlagStatus                      0x080008ca   Section        0  stm32f4xx_adc.o(i.ADC_GetFlagStatus)
    i.ADC_Init                               0x080008d8   Section        0  stm32f4xx_adc.o(i.ADC_Init)
    i.ADC_RegularChannelConfig               0x08000924   Section        0  stm32f4xx_adc.o(i.ADC_RegularChannelConfig)
    i.ADC_SoftwareStartConv                  0x08000998   Section        0  stm32f4xx_adc.o(i.ADC_SoftwareStartConv)
    i.BUZZER_Init                            0x080009a4   Section        0  buzzer.o(i.BUZZER_Init)
    i.BUZZER_mission_polling                 0x080009e4   Section        0  buzzer.o(i.BUZZER_mission_polling)
    i.BusFault_Handler                       0x08000aa4   Section        0  stm32fxxx_it.o(i.BusFault_Handler)
    i.CAN1_Mode_Init                         0x08000aa8   Section        0  can.o(i.CAN1_Mode_Init)
    i.CAN1_RX0_IRQHandler                    0x08000b8c   Section        0  can.o(i.CAN1_RX0_IRQHandler)
    i.CAN_FilterInit                         0x08000bcc   Section        0  stm32f4xx_can.o(i.CAN_FilterInit)
    i.CAN_ITConfig                           0x08000c98   Section        0  stm32f4xx_can.o(i.CAN_ITConfig)
    i.CAN_Init                               0x08000ca8   Section        0  stm32f4xx_can.o(i.CAN_Init)
    i.CAN_Receive                            0x08000d90   Section        0  stm32f4xx_can.o(i.CAN_Receive)
    i.CAN_Transmit                           0x08000e1e   Section        0  stm32f4xx_can.o(i.CAN_Transmit)
    i.DCD_EP_Close                           0x08000ec2   Section        0  usb_dcd.o(i.DCD_EP_Close)
    i.DCD_EP_ClrStall                        0x08000eee   Section        0  usb_dcd.o(i.DCD_EP_ClrStall)
    i.DCD_EP_Flush                           0x08000f26   Section        0  usb_dcd.o(i.DCD_EP_Flush)
    i.DCD_EP_Open                            0x08000f3e   Section        0  usb_dcd.o(i.DCD_EP_Open)
    i.DCD_EP_PrepareRx                       0x08000f7a   Section        0  usb_dcd.o(i.DCD_EP_PrepareRx)
    i.DCD_EP_SetAddress                      0x08000fbe   Section        0  usb_dcd.o(i.DCD_EP_SetAddress)
    i.DCD_EP_Stall                           0x08000fce   Section        0  usb_dcd.o(i.DCD_EP_Stall)
    i.DCD_EP_Tx                              0x08001006   Section        0  usb_dcd.o(i.DCD_EP_Tx)
    i.DCD_HandleInEP_ISR                     0x08001044   Section        0  usb_dcd_int.o(i.DCD_HandleInEP_ISR)
    DCD_HandleInEP_ISR                       0x08001045   Thumb Code   198  usb_dcd_int.o(i.DCD_HandleInEP_ISR)
    i.DCD_HandleOutEP_ISR                    0x08001110   Section        0  usb_dcd_int.o(i.DCD_HandleOutEP_ISR)
    DCD_HandleOutEP_ISR                      0x08001111   Thumb Code   166  usb_dcd_int.o(i.DCD_HandleOutEP_ISR)
    i.DCD_HandleRxStatusQueueLevel_ISR       0x080011bc   Section        0  usb_dcd_int.o(i.DCD_HandleRxStatusQueueLevel_ISR)
    DCD_HandleRxStatusQueueLevel_ISR         0x080011bd   Thumb Code   124  usb_dcd_int.o(i.DCD_HandleRxStatusQueueLevel_ISR)
    i.DCD_HandleUSBSuspend_ISR               0x08001238   Section        0  usb_dcd_int.o(i.DCD_HandleUSBSuspend_ISR)
    DCD_HandleUSBSuspend_ISR                 0x08001239   Thumb Code   102  usb_dcd_int.o(i.DCD_HandleUSBSuspend_ISR)
    i.DCD_HandleUsbReset_ISR                 0x080012a8   Section        0  usb_dcd_int.o(i.DCD_HandleUsbReset_ISR)
    DCD_HandleUsbReset_ISR                   0x080012a9   Thumb Code   138  usb_dcd_int.o(i.DCD_HandleUsbReset_ISR)
    i.DCD_Init                               0x08001338   Section        0  usb_dcd.o(i.DCD_Init)
    i.DCD_WriteEmptyTxFifo                   0x080013ca   Section        0  usb_dcd_int.o(i.DCD_WriteEmptyTxFifo)
    DCD_WriteEmptyTxFifo                     0x080013cb   Thumb Code   114  usb_dcd_int.o(i.DCD_WriteEmptyTxFifo)
    i.DMA1_Stream0_IRQHandler                0x0800143c   Section        0  tm_stm32f4_dma.o(i.DMA1_Stream0_IRQHandler)
    i.DMA1_Stream1_IRQHandler                0x08001448   Section        0  tm_stm32f4_dma.o(i.DMA1_Stream1_IRQHandler)
    i.DMA1_Stream2_IRQHandler                0x08001454   Section        0  tm_stm32f4_dma.o(i.DMA1_Stream2_IRQHandler)
    i.DMA1_Stream3_IRQHandler                0x08001460   Section        0  tm_stm32f4_dma.o(i.DMA1_Stream3_IRQHandler)
    i.DMA1_Stream4_IRQHandler                0x0800146c   Section        0  tm_stm32f4_dma.o(i.DMA1_Stream4_IRQHandler)
    i.DMA1_Stream5_IRQHandler                0x08001478   Section        0  tm_stm32f4_dma.o(i.DMA1_Stream5_IRQHandler)
    i.DMA1_Stream6_IRQHandler                0x08001484   Section        0  tm_stm32f4_dma.o(i.DMA1_Stream6_IRQHandler)
    i.DMA1_Stream7_IRQHandler                0x08001490   Section        0  tm_stm32f4_dma.o(i.DMA1_Stream7_IRQHandler)
    i.DMA2_Stream1_IRQHandler                0x0800149c   Section        0  tm_stm32f4_dma.o(i.DMA2_Stream1_IRQHandler)
    i.DMA2_Stream2_IRQHandler                0x080014a8   Section        0  tm_stm32f4_dma.o(i.DMA2_Stream2_IRQHandler)
    i.DMA2_Stream3_IRQHandler                0x080014b4   Section        0  tm_stm32f4_dma.o(i.DMA2_Stream3_IRQHandler)
    i.DMA2_Stream4_IRQHandler                0x080014c0   Section        0  tm_stm32f4_dma.o(i.DMA2_Stream4_IRQHandler)
    i.DMA2_Stream5_IRQHandler                0x080014cc   Section        0  tm_stm32f4_dma.o(i.DMA2_Stream5_IRQHandler)
    i.DMA2_Stream6_IRQHandler                0x080014d8   Section        0  tm_stm32f4_dma.o(i.DMA2_Stream6_IRQHandler)
    i.DMA2_Stream7_IRQHandler                0x080014e4   Section        0  tm_stm32f4_dma.o(i.DMA2_Stream7_IRQHandler)
    i.DMA_Init                               0x080014f0   Section        0  stm32f4xx_dma.o(i.DMA_Init)
    i.DebugMon_Handler                       0x08001544   Section        0  stm32fxxx_it.o(i.DebugMon_Handler)
    i.EXTI0_IRQHandler                       0x08001548   Section        0  coder.o(i.EXTI0_IRQHandler)
    i.EXTIX_Init                             0x08001564   Section        0  coder.o(i.EXTIX_Init)
    i.EXTI_ClearITPendingBit                 0x080015b0   Section        0  stm32f4xx_exti.o(i.EXTI_ClearITPendingBit)
    i.EXTI_Init                              0x080015bc   Section        0  stm32f4xx_exti.o(i.EXTI_Init)
    i.FLASH_EraseSector                      0x0800162c   Section        0  stm32f4xx_flash.o(i.FLASH_EraseSector)
    i.FLASH_GetStatus                        0x08001698   Section        0  stm32f4xx_flash.o(i.FLASH_GetStatus)
    i.FLASH_Lock                             0x080016d4   Section        0  stm32f4xx_flash.o(i.FLASH_Lock)
    i.FLASH_ProgramWord                      0x080016e4   Section        0  stm32f4xx_flash.o(i.FLASH_ProgramWord)
    i.FLASH_Unlock                           0x08001720   Section        0  stm32f4xx_flash.o(i.FLASH_Unlock)
    i.FLASH_WaitForLastOperation             0x08001744   Section        0  stm32f4xx_flash.o(i.FLASH_WaitForLastOperation)
    i.GPIO_Init                              0x08001762   Section        0  stm32f4xx_gpio.o(i.GPIO_Init)
    i.GPIO_PinAFConfig                       0x080017da   Section        0  stm32f4xx_gpio.o(i.GPIO_PinAFConfig)
    i.GPIO_ResetBits                         0x080017fa   Section        0  stm32f4xx_gpio.o(i.GPIO_ResetBits)
    i.GPIO_SetBits                           0x080017fe   Section        0  stm32f4xx_gpio.o(i.GPIO_SetBits)
    i.Get_Adc                                0x08001804   Section        0  adc.o(i.Get_Adc)
    i.Get_Adc_Average                        0x08001834   Section        0  adc.o(i.Get_Adc_Average)
    i.HardFault_Handler                      0x080018ce   Section        0  stm32fxxx_it.o(i.HardFault_Handler)
    i.LED1_OFF                               0x080018d0   Section        0  notification.o(i.LED1_OFF)
    i.LED1_ON                                0x080018dc   Section        0  notification.o(i.LED1_ON)
    i.LED1_init                              0x080018e8   Section        0  notification.o(i.LED1_init)
    i.LED_OFF                                0x08001928   Section        0  notification.o(i.LED_OFF)
    i.LED_ON                                 0x08001934   Section        0  notification.o(i.LED_ON)
    i.LED_init                               0x08001940   Section        0  notification.o(i.LED_init)
    i.LM75_parpare_buffer                    0x0800197c   Section        0  temp_control.o(i.LM75_parpare_buffer)
    i.MM_position                            0x08001a1c   Section        0  msd_test.o(i.MM_position)
    i.MSD_GPIO_Config                        0x08001a58   Section        0  microstepdriver.o(i.MSD_GPIO_Config)
    MSD_GPIO_Config                          0x08001a59   Thumb Code   152  microstepdriver.o(i.MSD_GPIO_Config)
    i.MSD_Init                               0x08001af8   Section        0  microstepdriver.o(i.MSD_Init)
    i.MSD_Move                               0x08001b20   Section        0  microstepdriver.o(i.MSD_Move)
    i.MSD_StepCounter                        0x08001c7c   Section        0  microstepdriver.o(i.MSD_StepCounter)
    i.MemManage_Handler                      0x08001c94   Section        0  stm32fxxx_it.o(i.MemManage_Handler)
    i.NMI_Handler                            0x08001c96   Section        0  stm32fxxx_it.o(i.NMI_Handler)
    i.NVIC_Init                              0x08001c98   Section        0  misc.o(i.NVIC_Init)
    i.NVIC_PriorityGroupConfig               0x08001cfc   Section        0  misc.o(i.NVIC_PriorityGroupConfig)
    i.OTG_HS_EP1_IN_IRQHandler               0x08001d10   Section        0  stm32fxxx_it.o(i.OTG_HS_EP1_IN_IRQHandler)
    i.OTG_HS_EP1_OUT_IRQHandler              0x08001d1c   Section        0  stm32fxxx_it.o(i.OTG_HS_EP1_OUT_IRQHandler)
    i.OTG_HS_IRQHandler                      0x08001d28   Section        0  stm32fxxx_it.o(i.OTG_HS_IRQHandler)
    i.OTG_HS_WKUP_IRQHandler                 0x08001d34   Section        0  stm32fxxx_it.o(i.OTG_HS_WKUP_IRQHandler)
    i.PendSV_Handler                         0x08001d64   Section        0  stm32fxxx_it.o(i.PendSV_Handler)
    i.RCC_AHB1PeriphClockCmd                 0x08001d68   Section        0  stm32f4xx_rcc.o(i.RCC_AHB1PeriphClockCmd)
    i.RCC_APB1PeriphClockCmd                 0x08001d80   Section        0  stm32f4xx_rcc.o(i.RCC_APB1PeriphClockCmd)
    i.RCC_APB1PeriphResetCmd                 0x08001d98   Section        0  stm32f4xx_rcc.o(i.RCC_APB1PeriphResetCmd)
    i.RCC_APB2PeriphClockCmd                 0x08001db0   Section        0  stm32f4xx_rcc.o(i.RCC_APB2PeriphClockCmd)
    i.RCC_APB2PeriphResetCmd                 0x08001dc8   Section        0  stm32f4xx_rcc.o(i.RCC_APB2PeriphResetCmd)
    i.RCC_GetClocksFreq                      0x08001de0   Section        0  stm32f4xx_rcc.o(i.RCC_GetClocksFreq)
    i.RCC_GetFlagStatus                      0x08001e70   Section        0  stm32f4xx_rcc.o(i.RCC_GetFlagStatus)
    i.STMFLASH_GetFlashSector                0x08001ea4   Section        0  stmflash.o(i.STMFLASH_GetFlashSector)
    i.STMFLASH_Read                          0x08001f44   Section        0  stmflash.o(i.STMFLASH_Read)
    i.STMFLASH_Write                         0x08001f58   Section        0  stmflash.o(i.STMFLASH_Write)
    i.SVC_Handler                            0x08001fcc   Section        0  stm32fxxx_it.o(i.SVC_Handler)
    i.SYSCFG_EXTILineConfig                  0x08001fd0   Section        0  stm32f4xx_syscfg.o(i.SYSCFG_EXTILineConfig)
    i.SetSysClock                            0x08002000   Section        0  system_stm32f4xx.o(i.SetSysClock)
    SetSysClock                              0x08002001   Thumb Code   162  system_stm32f4xx.o(i.SetSysClock)
    i.SysTick_Handler                        0x080020b4   Section        0  stm32fxxx_it.o(i.SysTick_Handler)
    i.SystemInit                             0x080020c4   Section        0  system_stm32f4xx.o(i.SystemInit)
    i.TI1_Config                             0x08002120   Section        0  stm32f4xx_tim.o(i.TI1_Config)
    TI1_Config                               0x08002121   Thumb Code    46  stm32f4xx_tim.o(i.TI1_Config)
    i.TI2_Config                             0x0800214e   Section        0  stm32f4xx_tim.o(i.TI2_Config)
    TI2_Config                               0x0800214f   Thumb Code    54  stm32f4xx_tim.o(i.TI2_Config)
    i.TIM2_IRQHandler                        0x08002184   Section        0  microstepdriver.o(i.TIM2_IRQHandler)
    i.TIM_ARRPreloadConfig                   0x0800233c   Section        0  stm32f4xx_tim.o(i.TIM_ARRPreloadConfig)
    i.TIM_ClearFlag                          0x08002350   Section        0  stm32f4xx_tim.o(i.TIM_ClearFlag)
    i.TIM_ClearITPendingBit                  0x08002356   Section        0  stm32f4xx_tim.o(i.TIM_ClearITPendingBit)
    i.TIM_Cmd                                0x0800235c   Section        0  stm32f4xx_tim.o(i.TIM_Cmd)
    i.TIM_EncoderInterfaceConfig             0x08002370   Section        0  stm32f4xx_tim.o(i.TIM_EncoderInterfaceConfig)
    i.TIM_GetITStatus                        0x080023a2   Section        0  stm32f4xx_tim.o(i.TIM_GetITStatus)
    i.TIM_ICInit                             0x080023ba   Section        0  stm32f4xx_tim.o(i.TIM_ICInit)
    i.TIM_ICStructInit                       0x08002466   Section        0  stm32f4xx_tim.o(i.TIM_ICStructInit)
    i.TIM_ITConfig                           0x08002476   Section        0  stm32f4xx_tim.o(i.TIM_ITConfig)
    i.TIM_Mode_Config                        0x08002486   Section        0  microstepdriver.o(i.TIM_Mode_Config)
    TIM_Mode_Config                          0x08002487   Thumb Code   142  microstepdriver.o(i.TIM_Mode_Config)
    i.TIM_OC2Init                            0x08002514   Section        0  stm32f4xx_tim.o(i.TIM_OC2Init)
    i.TIM_OC2PreloadConfig                   0x08002594   Section        0  stm32f4xx_tim.o(i.TIM_OC2PreloadConfig)
    i.TIM_SetAutoreload                      0x080025a8   Section        0  stm32f4xx_tim.o(i.TIM_SetAutoreload)
    i.TIM_SetCompare2                        0x080025ac   Section        0  stm32f4xx_tim.o(i.TIM_SetCompare2)
    i.TIM_SetCounter                         0x080025b0   Section        0  stm32f4xx_tim.o(i.TIM_SetCounter)
    i.TIM_SetIC1Prescaler                    0x080025b4   Section        0  stm32f4xx_tim.o(i.TIM_SetIC1Prescaler)
    i.TIM_SetIC2Prescaler                    0x080025c4   Section        0  stm32f4xx_tim.o(i.TIM_SetIC2Prescaler)
    i.TIM_SetIC3Prescaler                    0x080025dc   Section        0  stm32f4xx_tim.o(i.TIM_SetIC3Prescaler)
    i.TIM_SetIC4Prescaler                    0x080025ec   Section        0  stm32f4xx_tim.o(i.TIM_SetIC4Prescaler)
    i.TIM_TimeBaseInit                       0x08002604   Section        0  stm32f4xx_tim.o(i.TIM_TimeBaseInit)
    i.TIM_TimeBaseStructInit                 0x08002680   Section        0  stm32f4xx_tim.o(i.TIM_TimeBaseStructInit)
    i.TIM_UpdateRequestConfig                0x08002692   Section        0  stm32f4xx_tim.o(i.TIM_UpdateRequestConfig)
    i.TM_DMA_ClearFlag                       0x080026a8   Section        0  tm_stm32f4_dma.o(i.TM_DMA_ClearFlag)
    i.TM_DMA_ClearFlags                      0x080026ec   Section        0  tm_stm32f4_dma.o(i.TM_DMA_ClearFlags)
    i.TM_DMA_DirectModeErrorHandler          0x080026f2   Section        0  tm_stm32f4_dma.o(i.TM_DMA_DirectModeErrorHandler)
    i.TM_DMA_FIFOErrorHandler                0x080026f4   Section        0  tm_stm32f4_dma.o(i.TM_DMA_FIFOErrorHandler)
    i.TM_DMA_GetFlags                        0x080026f8   Section        0  tm_stm32f4_dma.o(i.TM_DMA_GetFlags)
    i.TM_DMA_HalfTransferCompleteHandler     0x0800273c   Section        0  tm_stm32f4_dma.o(i.TM_DMA_HalfTransferCompleteHandler)
    i.TM_DMA_INT_ProcessInterrupt            0x0800273e   Section        0  tm_stm32f4_dma.o(i.TM_DMA_INT_ProcessInterrupt)
    TM_DMA_INT_ProcessInterrupt              0x0800273f   Thumb Code   102  tm_stm32f4_dma.o(i.TM_DMA_INT_ProcessInterrupt)
    i.TM_DMA_TransferCompleteHandler         0x080027a4   Section        0  tm_stm32f4_dma.o(i.TM_DMA_TransferCompleteHandler)
    i.TM_DMA_TransferErrorHandler            0x080027a6   Section        0  tm_stm32f4_dma.o(i.TM_DMA_TransferErrorHandler)
    i.TM_GPIO_GetPortSource                  0x080027a8   Section        0  tm_stm32f4_gpio.o(i.TM_GPIO_GetPortSource)
    i.TM_GPIO_INT_EnableClock                0x080027b8   Section        0  tm_stm32f4_gpio.o(i.TM_GPIO_INT_EnableClock)
    i.TM_GPIO_INT_Init                       0x080027d0   Section        0  tm_stm32f4_gpio.o(i.TM_GPIO_INT_Init)
    i.TM_GPIO_Init                           0x08002858   Section        0  tm_stm32f4_gpio.o(i.TM_GPIO_Init)
    i.TM_GPIO_InitAlternate                  0x0800287e   Section        0  tm_stm32f4_gpio.o(i.TM_GPIO_InitAlternate)
    i.TM_UART4_InitPins                      0x080028dc   Section        0  tm_stm32f4_usart.o(i.TM_UART4_InitPins)
    i.TM_UART5_InitPins                      0x08002924   Section        0  tm_stm32f4_usart.o(i.TM_UART5_InitPins)
    i.TM_USART1_InitPins                     0x08002968   Section        0  tm_stm32f4_usart.o(i.TM_USART1_InitPins)
    i.TM_USART2_InitPins                     0x080029b0   Section        0  tm_stm32f4_usart.o(i.TM_USART2_InitPins)
    i.TM_USART3_InitPins                     0x080029f8   Section        0  tm_stm32f4_usart.o(i.TM_USART3_InitPins)
    i.TM_USART6_InitPins                     0x08002a54   Section        0  tm_stm32f4_usart.o(i.TM_USART6_InitPins)
    i.TM_USART_DMA_INT_GetSettings           0x08002a9c   Section        0  tm_stm32f4_usart_dma.o(i.TM_USART_DMA_INT_GetSettings)
    TM_USART_DMA_INT_GetSettings             0x08002a9d   Thumb Code    62  tm_stm32f4_usart_dma.o(i.TM_USART_DMA_INT_GetSettings)
    i.TM_USART_DMA_Init                      0x08002af8   Section        0  tm_stm32f4_usart_dma.o(i.TM_USART_DMA_Init)
    i.TM_USART_DMA_Send                      0x08002b4c   Section        0  tm_stm32f4_usart_dma.o(i.TM_USART_DMA_Send)
    i.TM_USART_FindCharacter                 0x08002ba0   Section        0  tm_stm32f4_usart.o(i.TM_USART_FindCharacter)
    i.TM_USART_Getc                          0x08002bd2   Section        0  tm_stm32f4_usart.o(i.TM_USART_Getc)
    i.TM_USART_Gets                          0x08002c06   Section        0  tm_stm32f4_usart.o(i.TM_USART_Gets)
    i.TM_USART_INT_GetSubPriority            0x08002c5c   Section        0  tm_stm32f4_usart.o(i.TM_USART_INT_GetSubPriority)
    i.TM_USART_INT_GetUsart                  0x08002ca8   Section        0  tm_stm32f4_usart.o(i.TM_USART_INT_GetUsart)
    i.TM_USART_INT_Init                      0x08002d04   Section        0  tm_stm32f4_usart.o(i.TM_USART_INT_Init)
    TM_USART_INT_Init                        0x08002d05   Thumb Code   296  tm_stm32f4_usart.o(i.TM_USART_INT_Init)
    i.TM_USART_INT_InsertToBuffer            0x08002e48   Section        0  tm_stm32f4_usart.o(i.TM_USART_INT_InsertToBuffer)
    i.TM_USART_Init                          0x08002e70   Section        0  tm_stm32f4_usart.o(i.TM_USART_Init)
    i.TM_USART_InitCustomPinsCallback        0x08002f28   Section        0  tm_stm32f4_usart.o(i.TM_USART_InitCustomPinsCallback)
    i.TM_WATCHDOG_Init                       0x08002f2c   Section        0  tm_stm32f4_watchdog.o(i.TM_WATCHDOG_Init)
    i.UART4_IRQHandler                       0x08002fe4   Section        0  tm_stm32f4_usart.o(i.UART4_IRQHandler)
    i.UART5_IRQHandler                       0x08003004   Section        0  tm_stm32f4_usart.o(i.UART5_IRQHandler)
    i.USART1_IRQHandler                      0x08003020   Section        0  tm_stm32f4_usart.o(i.USART1_IRQHandler)
    i.USART2_IRQHandler                      0x0800303c   Section        0  tm_stm32f4_usart.o(i.USART2_IRQHandler)
    i.USART3_IRQHandler                      0x0800305c   Section        0  tm_stm32f4_usart.o(i.USART3_IRQHandler)
    i.USART6_IRQHandler                      0x0800307c   Section        0  tm_stm32f4_usart.o(i.USART6_IRQHandler)
    i.USART_DeInit                           0x0800309c   Section        0  stm32f4xx_usart.o(i.USART_DeInit)
    i.USART_Init                             0x08003148   Section        0  stm32f4xx_usart.o(i.USART_Init)
    i.USBD_ClrCfg                            0x080031f4   Section        0  usbd_core.o(i.USBD_ClrCfg)
    i.USBD_CtlContinueRx                     0x08003202   Section        0  usbd_ioreq.o(i.USBD_CtlContinueRx)
    i.USBD_CtlContinueSendData               0x08003214   Section        0  usbd_ioreq.o(i.USBD_CtlContinueSendData)
    i.USBD_CtlError                          0x08003226   Section        0  usbd_req.o(i.USBD_CtlError)
    i.USBD_CtlPrepareRx                      0x08003242   Section        0  usbd_ioreq.o(i.USBD_CtlPrepareRx)
    i.USBD_CtlReceiveStatus                  0x08003262   Section        0  usbd_ioreq.o(i.USBD_CtlReceiveStatus)
    i.USBD_CtlSendData                       0x08003284   Section        0  usbd_ioreq.o(i.USBD_CtlSendData)
    i.USBD_CtlSendStatus                     0x080032a4   Section        0  usbd_ioreq.o(i.USBD_CtlSendStatus)
    i.USBD_DataInStage                       0x080032c8   Section        0  usbd_core.o(i.USBD_DataInStage)
    USBD_DataInStage                         0x080032c9   Thumb Code   172  usbd_core.o(i.USBD_DataInStage)
    i.USBD_DataOutStage                      0x08003378   Section        0  usbd_core.o(i.USBD_DataOutStage)
    USBD_DataOutStage                        0x08003379   Thumb Code   116  usbd_core.o(i.USBD_DataOutStage)
    i.USBD_GetDescriptor                     0x080033ec   Section        0  usbd_req.o(i.USBD_GetDescriptor)
    USBD_GetDescriptor                       0x080033ed   Thumb Code   288  usbd_req.o(i.USBD_GetDescriptor)
    i.USBD_GetRxCount                        0x08003510   Section        0  usbd_ioreq.o(i.USBD_GetRxCount)
    i.USBD_GetString                         0x08003520   Section        0  usbd_req.o(i.USBD_GetString)
    i.USBD_Init                              0x08003566   Section        0  usbd_core.o(i.USBD_Init)
    i.USBD_IsoINIncomplete                   0x0800359a   Section        0  usbd_core.o(i.USBD_IsoINIncomplete)
    USBD_IsoINIncomplete                     0x0800359b   Thumb Code    14  usbd_core.o(i.USBD_IsoINIncomplete)
    i.USBD_IsoOUTIncomplete                  0x080035a8   Section        0  usbd_core.o(i.USBD_IsoOUTIncomplete)
    USBD_IsoOUTIncomplete                    0x080035a9   Thumb Code    14  usbd_core.o(i.USBD_IsoOUTIncomplete)
    i.USBD_OTG_EP1IN_ISR_Handler             0x080035b8   Section        0  usb_dcd_int.o(i.USBD_OTG_EP1IN_ISR_Handler)
    i.USBD_OTG_EP1OUT_ISR_Handler            0x08003630   Section        0  usb_dcd_int.o(i.USBD_OTG_EP1OUT_ISR_Handler)
    i.USBD_OTG_ISR_Handler                   0x08003680   Section        0  usb_dcd_int.o(i.USBD_OTG_ISR_Handler)
    i.USBD_ParseSetupRequest                 0x080037cc   Section        0  usbd_req.o(i.USBD_ParseSetupRequest)
    i.USBD_Reset                             0x08003810   Section        0  usbd_core.o(i.USBD_Reset)
    USBD_Reset                               0x08003811   Thumb Code    46  usbd_core.o(i.USBD_Reset)
    i.USBD_Resume                            0x0800383e   Section        0  usbd_core.o(i.USBD_Resume)
    USBD_Resume                              0x0800383f   Thumb Code    22  usbd_core.o(i.USBD_Resume)
    i.USBD_SOF                               0x08003854   Section        0  usbd_core.o(i.USBD_SOF)
    USBD_SOF                                 0x08003855   Thumb Code    16  usbd_core.o(i.USBD_SOF)
    i.USBD_SetCfg                            0x08003864   Section        0  usbd_core.o(i.USBD_SetCfg)
    i.USBD_SetConfig                         0x08003880   Section        0  usbd_req.o(i.USBD_SetConfig)
    USBD_SetConfig                           0x08003881   Thumb Code   112  usbd_req.o(i.USBD_SetConfig)
    i.USBD_SetFeature                        0x080038f4   Section        0  usbd_req.o(i.USBD_SetFeature)
    USBD_SetFeature                          0x080038f5   Thumb Code   118  usbd_req.o(i.USBD_SetFeature)
    i.USBD_SetupStage                        0x08003970   Section        0  usbd_core.o(i.USBD_SetupStage)
    USBD_SetupStage                          0x08003971   Thumb Code    72  usbd_core.o(i.USBD_SetupStage)
    i.USBD_StdDevReq                         0x080039b8   Section        0  usbd_req.o(i.USBD_StdDevReq)
    i.USBD_StdEPReq                          0x08003aa8   Section        0  usbd_req.o(i.USBD_StdEPReq)
    i.USBD_StdItfReq                         0x08003b7c   Section        0  usbd_req.o(i.USBD_StdItfReq)
    i.USBD_Suspend                           0x08003bb2   Section        0  usbd_core.o(i.USBD_Suspend)
    USBD_Suspend                             0x08003bb3   Thumb Code    28  usbd_core.o(i.USBD_Suspend)
    i.USBD_USR_ConfigStrDescriptor           0x08003bd0   Section        0  usbd_desc.o(i.USBD_USR_ConfigStrDescriptor)
    i.USBD_USR_DeviceConfigured              0x08003bf4   Section        0  usbd_usr.o(i.USBD_USR_DeviceConfigured)
    i.USBD_USR_DeviceConnected               0x08003c10   Section        0  usbd_usr.o(i.USBD_USR_DeviceConnected)
    i.USBD_USR_DeviceDescriptor              0x08003c20   Section        0  usbd_desc.o(i.USBD_USR_DeviceDescriptor)
    i.USBD_USR_DeviceDisconnected            0x08003c2c   Section        0  usbd_usr.o(i.USBD_USR_DeviceDisconnected)
    i.USBD_USR_DeviceReset                   0x08003c40   Section        0  usbd_usr.o(i.USBD_USR_DeviceReset)
    i.USBD_USR_DeviceResumed                 0x08003c44   Section        0  usbd_usr.o(i.USBD_USR_DeviceResumed)
    i.USBD_USR_DeviceSuspended               0x08003c5c   Section        0  usbd_usr.o(i.USBD_USR_DeviceSuspended)
    i.USBD_USR_Init                          0x08003c70   Section        0  usbd_usr.o(i.USBD_USR_Init)
    i.USBD_USR_InterfaceStrDescriptor        0x08003c74   Section        0  usbd_desc.o(i.USBD_USR_InterfaceStrDescriptor)
    i.USBD_USR_LangIDStrDescriptor           0x08003c9c   Section        0  usbd_desc.o(i.USBD_USR_LangIDStrDescriptor)
    i.USBD_USR_ManufacturerStrDescriptor     0x08003ca8   Section        0  usbd_desc.o(i.USBD_USR_ManufacturerStrDescriptor)
    i.USBD_USR_ProductStrDescriptor          0x08003cc8   Section        0  usbd_desc.o(i.USBD_USR_ProductStrDescriptor)
    i.USBD_USR_SerialStrDescriptor           0x08003d0c   Section        0  usbd_desc.o(i.USBD_USR_SerialStrDescriptor)
    i.USBD_cdc_GetCfgDesc                    0x08003d54   Section        0  usbd_cdc_core.o(i.USBD_cdc_GetCfgDesc)
    USBD_cdc_GetCfgDesc                      0x08003d55   Thumb Code     8  usbd_cdc_core.o(i.USBD_cdc_GetCfgDesc)
    i.USBD_cdc_GetOtherCfgDesc               0x08003d60   Section        0  usbd_cdc_core.o(i.USBD_cdc_GetOtherCfgDesc)
    USBD_cdc_GetOtherCfgDesc                 0x08003d61   Thumb Code     8  usbd_cdc_core.o(i.USBD_cdc_GetOtherCfgDesc)
    i.USB_OTG_BSP_EnableInterrupt            0x08003d6c   Section        0  usb_bsp.o(i.USB_OTG_BSP_EnableInterrupt)
    i.USB_OTG_BSP_Init                       0x08003dd4   Section        0  usb_bsp.o(i.USB_OTG_BSP_Init)
    i.USB_OTG_BSP_mDelay                     0x08003f14   Section        0  usb_bsp.o(i.USB_OTG_BSP_mDelay)
    i.USB_OTG_BSP_uDelay                     0x08003f1e   Section        0  usb_bsp.o(i.USB_OTG_BSP_uDelay)
    i.USB_OTG_CoreInit                       0x08003f34   Section        0  usb_core.o(i.USB_OTG_CoreInit)
    i.USB_OTG_CoreInitDev                    0x08003fb4   Section        0  usb_core.o(i.USB_OTG_CoreInitDev)
    i.USB_OTG_CoreReset                      0x0800410c   Section        0  usb_core.o(i.USB_OTG_CoreReset)
    USB_OTG_CoreReset                        0x0800410d   Thumb Code    84  usb_core.o(i.USB_OTG_CoreReset)
    i.USB_OTG_DisableGlobalInt               0x08004164   Section        0  usb_core.o(i.USB_OTG_DisableGlobalInt)
    i.USB_OTG_EP0Activate                    0x08004174   Section        0  usb_core.o(i.USB_OTG_EP0Activate)
    i.USB_OTG_EP0StartXfer                   0x080041ae   Section        0  usb_core.o(i.USB_OTG_EP0StartXfer)
    i.USB_OTG_EP0_OutStart                   0x08004268   Section        0  usb_core.o(i.USB_OTG_EP0_OutStart)
    i.USB_OTG_EPActivate                     0x0800428c   Section        0  usb_core.o(i.USB_OTG_EPActivate)
    i.USB_OTG_EPClearStall                   0x080042f4   Section        0  usb_core.o(i.USB_OTG_EPClearStall)
    i.USB_OTG_EPDeactivate                   0x08004326   Section        0  usb_core.o(i.USB_OTG_EPDeactivate)
    i.USB_OTG_EPSetStall                     0x08004374   Section        0  usb_core.o(i.USB_OTG_EPSetStall)
    i.USB_OTG_EPStartXfer                    0x080043a4   Section        0  usb_core.o(i.USB_OTG_EPStartXfer)
    i.USB_OTG_EnableDevInt                   0x080044d0   Section        0  usb_core.o(i.USB_OTG_EnableDevInt)
    i.USB_OTG_EnableGlobalInt                0x08004518   Section        0  usb_core.o(i.USB_OTG_EnableGlobalInt)
    i.USB_OTG_FlushRxFifo                    0x08004528   Section        0  usb_core.o(i.USB_OTG_FlushRxFifo)
    i.USB_OTG_FlushTxFifo                    0x08004564   Section        0  usb_core.o(i.USB_OTG_FlushTxFifo)
    i.USB_OTG_GetDeviceSpeed                 0x080045a8   Section        0  usb_core.o(i.USB_OTG_GetDeviceSpeed)
    i.USB_OTG_InitDevSpeed                   0x080045ce   Section        0  usb_core.o(i.USB_OTG_InitDevSpeed)
    i.USB_OTG_IsDeviceMode                   0x080045da   Section        0  usb_core.o(i.USB_OTG_IsDeviceMode)
    i.USB_OTG_ReadCoreItr                    0x080045ec   Section        0  usb_core.o(i.USB_OTG_ReadCoreItr)
    i.USB_OTG_ReadDevAllInEPItr              0x080045f6   Section        0  usb_core.o(i.USB_OTG_ReadDevAllInEPItr)
    i.USB_OTG_ReadDevAllOutEp_itr            0x08004602   Section        0  usb_core.o(i.USB_OTG_ReadDevAllOutEp_itr)
    i.USB_OTG_ReadDevOutEP_itr               0x0800460e   Section        0  usb_core.o(i.USB_OTG_ReadDevOutEP_itr)
    i.USB_OTG_ReadPacket                     0x0800461e   Section        0  usb_core.o(i.USB_OTG_ReadPacket)
    i.USB_OTG_SelectCore                     0x08004640   Section        0  usb_core.o(i.USB_OTG_SelectCore)
    i.USB_OTG_SetCurrentMode                 0x08004704   Section        0  usb_core.o(i.USB_OTG_SetCurrentMode)
    i.USB_OTG_UngateClock                    0x0800472e   Section        0  usb_core.o(i.USB_OTG_UngateClock)
    i.USB_OTG_WritePacket                    0x0800474c   Section        0  usb_core.o(i.USB_OTG_WritePacket)
    i.UsageFault_Handler                     0x08004774   Section        0  stm32fxxx_it.o(i.UsageFault_Handler)
    i.__0sprintf$8                           0x08004778   Section        0  printf8.o(i.__0sprintf$8)
    i.__hardfp_sqrt                          0x080047a0   Section        0  sqrt.o(i.__hardfp_sqrt)
    i.__scatterload_copy                     0x0800481a   Section       14  handlers.o(i.__scatterload_copy)
    i.__scatterload_null                     0x08004828   Section        2  handlers.o(i.__scatterload_null)
    i.__scatterload_zeroinit                 0x0800482a   Section       14  handlers.o(i.__scatterload_zeroinit)
    i.__set_errno                            0x08004838   Section        0  errno.o(i.__set_errno)
    i._printf_core                           0x08004844   Section        0  printf8.o(i._printf_core)
    _printf_core                             0x08004845   Thumb Code   996  printf8.o(i._printf_core)
    i._printf_post_padding                   0x08004c54   Section        0  printf8.o(i._printf_post_padding)
    _printf_post_padding                     0x08004c55   Thumb Code    36  printf8.o(i._printf_post_padding)
    i._printf_pre_padding                    0x08004c78   Section        0  printf8.o(i._printf_pre_padding)
    _printf_pre_padding                      0x08004c79   Thumb Code    46  printf8.o(i._printf_pre_padding)
    i._sputc                                 0x08004ca6   Section        0  printf8.o(i._sputc)
    _sputc                                   0x08004ca7   Thumb Code    10  printf8.o(i._sputc)
    i.action_failed_send                     0x08004cb0   Section        0  can.o(i.action_failed_send)
    i.action_success_send                    0x08004cd8   Section        0  can.o(i.action_success_send)
    i.action_value_send                      0x08004cfc   Section        0  can.o(i.action_value_send)
    i.action_value_send_none_80              0x08004d2c   Section        0  can.o(i.action_value_send_none_80)
    i.adc_value_conv_temperature             0x08004d54   Section        0  b3470.o(i.adc_value_conv_temperature)
    i.adc_value_filter                       0x08004da0   Section        0  b3470.o(i.adc_value_filter)
    i.adc_value_get                          0x08004e28   Section        0  b3470.o(i.adc_value_get)
    i.angle                                  0x08004e58   Section        0  msd_test.o(i.angle)
    i.b3470_get_temperature_offset           0x08004f64   Section        0  b3470.o(i.b3470_get_temperature_offset)
    i.b3470_init                             0x08004f80   Section        0  b3470.o(i.b3470_init)
    i.buzzer_mission                         0x08005024   Section        0  buzzer.o(i.buzzer_mission)
    i.can_mutil_frame_send                   0x08005034   Section        0  can.o(i.can_mutil_frame_send)
    i.close_inter_fan                        0x0800510c   Section        0  cooler.o(i.close_inter_fan)
    i.coder_gpio_init                        0x0800511c   Section        0  coder.o(i.coder_gpio_init)
    i.configureEncoder                       0x0800514c   Section        0  coder.o(i.configureEncoder)
    i.cooler_init                            0x0800520c   Section        0  cooler.o(i.cooler_init)
    i.cooler_off                             0x08005244   Section        0  cooler.o(i.cooler_off)
    i.cooler_on                              0x0800527c   Section        0  cooler.o(i.cooler_on)
    i.cooler_pwm_mission                     0x080052ac   Section        0  cooler.o(i.cooler_pwm_mission)
    i.flash_get_para                         0x08005314   Section        0  stmflash.o(i.flash_get_para)
    i.flash_init                             0x080053b8   Section        0  stmflash.o(i.flash_init)
    i.flash_mission_polling                  0x080053d4   Section        0  stmflash.o(i.flash_mission_polling)
    i.get_steps                              0x08005460   Section        0  microstepdriver.o(i.get_steps)
    i.led_mission_polling                    0x08005484   Section        0  notification.o(i.led_mission_polling)
    i.led_to_notification                    0x08005560   Section        0  notification.o(i.led_to_notification)
    i.lm75a_mission_polling                  0x08005570   Section        0  temp_control.o(i.lm75a_mission_polling)
    i.lm75a_temp_read_polling                0x080055f4   Section        0  temp_control.o(i.lm75a_temp_read_polling)
    i.main                                   0x0800571c   Section        0  main.o(i.main)
    i.mission_failed_send                    0x08005990   Section        0  can.o(i.mission_failed_send)
    i.mission_polling                        0x080059ac   Section        0  mission.o(i.mission_polling)
    i.mission_success_send                   0x08005d0c   Section        0  can.o(i.mission_success_send)
    i.motor_finish                           0x08005d28   Section        0  msd_test.o(i.motor_finish)
    i.motor_inject_offset_position           0x08005d40   Section        0  msd_test.o(i.motor_inject_offset_position)
    i.motor_maintain_polling                 0x08005e04   Section        0  msd_test.o(i.motor_maintain_polling)
    i.motor_move_polling                     0x08005ec8   Section        0  msd_test.o(i.motor_move_polling)
    i.motor_reset                            0x08005f24   Section        0  msd_test.o(i.motor_reset)
    i.motor_shocking                         0x08006050   Section        0  msd_test.o(i.motor_shocking)
    i.motor_timeout_check                    0x08006124   Section        0  msd_test.o(i.motor_timeout_check)
    i.motor_timer_set                        0x08006170   Section        0  msd_test.o(i.motor_timer_set)
    i.move_to_position                       0x08006188   Section        0  msd_test.o(i.move_to_position)
    i.offset_calc                            0x080061c0   Section        0  stmflash.o(i.offset_calc)
    i.one_can_frame_send                     0x08006318   Section        0  can.o(i.one_can_frame_send)
    i.one_dimension_code_init                0x08006370   Section        0  one_dimension_code.o(i.one_dimension_code_init)
    i.one_dimension_code_mission_polling     0x080063b8   Section        0  one_dimension_code.o(i.one_dimension_code_mission_polling)
    i.one_dimension_code_read                0x08006478   Section        0  one_dimension_code.o(i.one_dimension_code_read)
    i.open_inter_fan                         0x0800648c   Section        0  cooler.o(i.open_inter_fan)
    i.parpareUSBframe                        0x0800649c   Section        0  can.o(i.parpareUSBframe)
    i.parpare_buffer                         0x08006510   Section        0  usart_screen.o(i.parpare_buffer)
    i.poniter_add                            0x080065bc   Section        0  can.o(i.poniter_add)
    i.poniter_plus_one                       0x080065d2   Section        0  can.o(i.poniter_plus_one)
    i.power_init                             0x080065e4   Section        0  cooler.o(i.power_init)
    i.power_off                              0x0800661c   Section        0  cooler.o(i.power_off)
    i.power_on                               0x08006638   Section        0  cooler.o(i.power_on)
    i.record_position                        0x08006654   Section        0  microstepdriver.o(i.record_position)
    i.record_steps                           0x08006690   Section        0  microstepdriver.o(i.record_steps)
    i.reser_screen                           0x080066c8   Section        0  temp_control.o(i.reser_screen)
    i.step_to_move_calc                      0x080066fc   Section        0  msd_test.o(i.step_to_move_calc)
    i.stmflash_read_reverse                  0x08006814   Section        0  stmflash.o(i.stmflash_read_reverse)
    i.su_mission_polling                     0x0800684c   Section        0  usart_screen.o(i.su_mission_polling)
    i.system_attribute_init                  0x08006920   Section        0  wwdg.o(i.system_attribute_init)
    i.temp_display_mission                   0x08006960   Section        0  temp_control.o(i.temp_display_mission)
    i.temp_faded                             0x08006b84   Section        0  temp_control.o(i.temp_faded)
    i.timer_reset                            0x08006bc8   Section        0  mission.o(i.timer_reset)
    i.usbd_cdc_DataIn                        0x08006c44   Section        0  usbd_cdc_core.o(i.usbd_cdc_DataIn)
    usbd_cdc_DataIn                          0x08006c45   Thumb Code    14  usbd_cdc_core.o(i.usbd_cdc_DataIn)
    i.usbd_cdc_DataOut                       0x08006c58   Section        0  usbd_cdc_core.o(i.usbd_cdc_DataOut)
    usbd_cdc_DataOut                         0x08006c59   Thumb Code   176  usbd_cdc_core.o(i.usbd_cdc_DataOut)
    i.usbd_cdc_DeInit                        0x08006d1c   Section        0  usbd_cdc_core.o(i.usbd_cdc_DeInit)
    usbd_cdc_DeInit                          0x08006d1d   Thumb Code    22  usbd_cdc_core.o(i.usbd_cdc_DeInit)
    i.usbd_cdc_EP0_RxReady                   0x08006d34   Section        0  usbd_cdc_core.o(i.usbd_cdc_EP0_RxReady)
    usbd_cdc_EP0_RxReady                     0x08006d35   Thumb Code    40  usbd_cdc_core.o(i.usbd_cdc_EP0_RxReady)
    i.usbd_cdc_Init                          0x08006d60   Section        0  usbd_cdc_core.o(i.usbd_cdc_Init)
    usbd_cdc_Init                            0x08006d61   Thumb Code    52  usbd_cdc_core.o(i.usbd_cdc_Init)
    i.usbd_cdc_Setup                         0x08006d98   Section        0  usbd_cdc_core.o(i.usbd_cdc_Setup)
    usbd_cdc_Setup                           0x08006d99   Thumb Code   140  usbd_cdc_core.o(i.usbd_cdc_Setup)
    i.watch_dog_recovery                     0x08006e28   Section        0  wwdg.o(i.watch_dog_recovery)
    i.wdg_flag_clear                         0x08006ea0   Section        0  wwdg.o(i.wdg_flag_clear)
    i.wdg_flag_set                           0x08006ea6   Section        0  wwdg.o(i.wdg_flag_set)
    i.wdg_motor_mission_recovery             0x08006eac   Section        0  wwdg.o(i.wdg_motor_mission_recovery)
    i.wdg_motor_mission_set                  0x08006eb8   Section        0  wwdg.o(i.wdg_motor_mission_set)
    .constdata                               0x08006eca   Section       20  tm_stm32f4_dma.o(.constdata)
    DMA_Flags_Bit_Pos                        0x08006eca   Data           4  tm_stm32f4_dma.o(.constdata)
    DMA_IRQs                                 0x08006ece   Data          16  tm_stm32f4_dma.o(.constdata)
    .ARM.__AT_0x10000000                     0x10000000   Section        1  can.o(.ARM.__AT_0x10000000)
    .ARM.__AT_0x10000004                     0x10000004   Section        1  can.o(.ARM.__AT_0x10000004)
    .ARM.__AT_0x10000008                     0x10000008   Section        1  can.o(.ARM.__AT_0x10000008)
    .ARM.__AT_0x1000000C                     0x1000000c   Section        1  can.o(.ARM.__AT_0x1000000C)
    .ARM.__AT_0x10000010                     0x10000010   Section        2  can.o(.ARM.__AT_0x10000010)
    .ARM.__AT_0x10000014                     0x10000014   Section        2  can.o(.ARM.__AT_0x10000014)
    .ARM.__AT_0x10000018                     0x10000018   Section        1  mission.o(.ARM.__AT_0x10000018)
    .ARM.__AT_0x10000218                     0x10000218   Section    10000  can.o(.ARM.__AT_0x10000218)
    .ARM.__AT_0x10002928                     0x10002928   Section     5100  can.o(.ARM.__AT_0x10002928)
    .data                                    0x20000000   Section        1  usbd_usr.o(.data)
    .data                                    0x20000004   Section       28  usbd_usr.o(.data)
    .data                                    0x20000020   Section       28  usbd_desc.o(.data)
    .data                                    0x2000003c   Section       22  usbd_desc.o(.data)
    .data                                    0x20000052   Section       10  usbd_desc.o(.data)
    .data                                    0x2000005c   Section       44  usbd_core.o(.data)
    .data                                    0x20000088   Section        4  usbd_core.o(.data)
    .data                                    0x2000008c   Section        4  usbd_core.o(.data)
    .data                                    0x20000090   Section       16  usbd_req.o(.data)
    cfgidx                                   0x20000090   Data           1  usbd_req.o(.data)
    .data                                    0x200000a0   Section       92  usbd_cdc_core.o(.data)
    usbd_cdc_AltSet                          0x200000a8   Data           4  usbd_cdc_core.o(.data)
    cdcCmd                                   0x200000ac   Data           4  usbd_cdc_core.o(.data)
    cdcLen                                   0x200000b0   Data           4  usbd_cdc_core.o(.data)
    .data                                    0x200000fc   Section       48  usbd_cdc_core.o(.data)
    .data                                    0x2000012c   Section       16  stm32f4xx_rcc.o(.data)
    APBAHBPrescTable                         0x2000012c   Data          16  stm32f4xx_rcc.o(.data)
    .data                                    0x2000013c   Section        4  main.o(.data)
    .data                                    0x20000140   Section        4  stm32fxxx_it.o(.data)
    .data                                    0x20000144   Section        1  can.o(.data)
    .data                                    0x20000148   Section        8  coder.o(.data)
    .data                                    0x20000150   Section       20  microstepdriver.o(.data)
    last_accel_delay                         0x20000158   Data           4  microstepdriver.o(.data)
    step_count                               0x2000015c   Data           4  microstepdriver.o(.data)
    rest                                     0x20000160   Data           4  microstepdriver.o(.data)
    .data                                    0x20000164   Section        7  usart_screen.o(.data)
    .data                                    0x2000016b   Section        2  stmflash.o(.data)
    upload                                   0x2000016b   Data           2  stmflash.o(.data)
    .data                                    0x20000170   Section       15  mission.o(.data)
    .data                                    0x2000017f   Section        1  cooler.o(.data)
    .data                                    0x20000180   Section        1  cooler.o(.data)
    .data                                    0x20000182   Section      142  b3470.o(.data)
    .data                                    0x20000210   Section        4  temp_control.o(.data)
    .data                                    0x20000214   Section       20  wwdg.o(.data)
    .data                                    0x20000228   Section       20  system_stm32f4xx.o(.data)
    .data                                    0x2000023c   Section       48  tm_stm32f4_usart_dma.o(.data)
    USART1_DMA_INT                           0x2000023c   Data           8  tm_stm32f4_usart_dma.o(.data)
    USART2_DMA_INT                           0x20000244   Data           8  tm_stm32f4_usart_dma.o(.data)
    USART3_DMA_INT                           0x2000024c   Data           8  tm_stm32f4_usart_dma.o(.data)
    UART4_DMA_INT                            0x20000254   Data           8  tm_stm32f4_usart_dma.o(.data)
    UART5_DMA_INT                            0x2000025c   Data           8  tm_stm32f4_usart_dma.o(.data)
    USART6_DMA_INT                           0x20000264   Data           8  tm_stm32f4_usart_dma.o(.data)
    .data                                    0x2000026c   Section       96  tm_stm32f4_usart.o(.data)
    .data                                    0x200002cc   Section        4  errno.o(.data)
    _errno                                   0x200002cc   Data           4  errno.o(.data)
    .bss                                     0x200002d0   Section       25  usbd_desc.o(.bss)
    SerialStr                                0x200002d0   Data          25  usbd_desc.o(.bss)
    .bss                                     0x200002e9   Section      255  usbd_req.o(.bss)
    .bss                                     0x200003e8   Section     2048  usbd_cdc_core.o(.bss)
    .bss                                     0x20000be8   Section     1524  main.o(.bss)
    .bss                                     0x200011dc   Section      255  can.o(.bss)
    .bss                                     0x200012dc   Section       36  microstepdriver.o(.bss)
    .bss                                     0x20001300   Section       40  msd_test.o(.bss)
    .bss                                     0x20001328   Section      216  one_dimension_code.o(.bss)
    .bss                                     0x20001400   Section       52  usart_screen.o(.bss)
    .bss                                     0x20001434   Section      100  stmflash.o(.bss)
    flash_u8_buf                             0x20001434   Data          48  stmflash.o(.bss)
    .bss                                     0x20001498   Section       44  buzzer.o(.bss)
    .bss                                     0x200014c4   Section       20  notification.o(.bss)
    .bss                                     0x200014d8   Section      132  temp_control.o(.bss)
    .bss                                     0x2000155c   Section       22  tm_stm32f4_gpio.o(.bss)
    GPIO_UsedPins                            0x2000155c   Data          22  tm_stm32f4_gpio.o(.bss)
    .bss                                     0x20001574   Section       60  tm_stm32f4_usart_dma.o(.bss)
    DMA_InitStruct                           0x20001574   Data          60  tm_stm32f4_usart_dma.o(.bss)
    .bss                                     0x200015b0   Section       32  tm_stm32f4_usart.o(.bss)
    .bss                                     0x200015d0   Section       32  tm_stm32f4_usart.o(.bss)
    .bss                                     0x200015f0   Section       32  tm_stm32f4_usart.o(.bss)
    .bss                                     0x20001610   Section       32  tm_stm32f4_usart.o(.bss)
    .bss                                     0x20001630   Section       32  tm_stm32f4_usart.o(.bss)
    .bss                                     0x20001650   Section       32  tm_stm32f4_usart.o(.bss)
    STACK                                    0x20001670   Section     1024  startup_stm32f40_41xxx.o(STACK)

    Global Symbols

    Symbol Name                              Value     Ov Type        Size  Object(Section)

    BuildAttributes$$THM_ISAv4$E$P$D$K$B$S$7EM$VFPi3$EXTD16$VFPS$VFMA$PE$A:L22UL41UL21$X:L11$S22US41US21$IEEE1$IW$USESV6$~STKCKD$USESV7$~SHL$OTIME$ROPI$IEEEJ$EBA8$MICROLIB$REQ8$PRES8$EABIv2 0x00000000   Number         0  anon$$obj.o ABSOLUTE
    __ARM_use_no_argv                        0x00000000   Number         0  main.o ABSOLUTE
    _printf_a                                0x00000000   Number         0  stubs.o ABSOLUTE
    _printf_c                                0x00000000   Number         0  stubs.o ABSOLUTE
    _printf_charcount                        0x00000000   Number         0  stubs.o ABSOLUTE
    _printf_d                                0x00000000   Number         0  stubs.o ABSOLUTE
    _printf_e                                0x00000000   Number         0  stubs.o ABSOLUTE
    _printf_f                                0x00000000   Number         0  stubs.o ABSOLUTE
    _printf_flags                            0x00000000   Number         0  stubs.o ABSOLUTE
    _printf_fp_dec                           0x00000000   Number         0  stubs.o ABSOLUTE
    _printf_fp_hex                           0x00000000   Number         0  stubs.o ABSOLUTE
    _printf_g                                0x00000000   Number         0  stubs.o ABSOLUTE
    _printf_i                                0x00000000   Number         0  stubs.o ABSOLUTE
    _printf_int_dec                          0x00000000   Number         0  stubs.o ABSOLUTE
    _printf_l                                0x00000000   Number         0  stubs.o ABSOLUTE
    _printf_lc                               0x00000000   Number         0  stubs.o ABSOLUTE
    _printf_ll                               0x00000000   Number         0  stubs.o ABSOLUTE
    _printf_lld                              0x00000000   Number         0  stubs.o ABSOLUTE
    _printf_lli                              0x00000000   Number         0  stubs.o ABSOLUTE
    _printf_llo                              0x00000000   Number         0  stubs.o ABSOLUTE
    _printf_llu                              0x00000000   Number         0  stubs.o ABSOLUTE
    _printf_llx                              0x00000000   Number         0  stubs.o ABSOLUTE
    _printf_longlong_dec                     0x00000000   Number         0  stubs.o ABSOLUTE
    _printf_longlong_hex                     0x00000000   Number         0  stubs.o ABSOLUTE
    _printf_longlong_oct                     0x00000000   Number         0  stubs.o ABSOLUTE
    _printf_ls                               0x00000000   Number         0  stubs.o ABSOLUTE
    _printf_mbtowc                           0x00000000   Number         0  stubs.o ABSOLUTE
    _printf_n                                0x00000000   Number         0  stubs.o ABSOLUTE
    _printf_o                                0x00000000   Number         0  stubs.o ABSOLUTE
    _printf_p                                0x00000000   Number         0  stubs.o ABSOLUTE
    _printf_percent                          0x00000000   Number         0  stubs.o ABSOLUTE
    _printf_pre_padding                      0x00000000   Number         0  stubs.o ABSOLUTE
    _printf_return_value                     0x00000000   Number         0  stubs.o ABSOLUTE
    _printf_s                                0x00000000   Number         0  stubs.o ABSOLUTE
    _printf_sizespec                         0x00000000   Number         0  stubs.o ABSOLUTE
    _printf_str                              0x00000000   Number         0  stubs.o ABSOLUTE
    _printf_truncate_signed                  0x00000000   Number         0  stubs.o ABSOLUTE
    _printf_truncate_unsigned                0x00000000   Number         0  stubs.o ABSOLUTE
    _printf_u                                0x00000000   Number         0  stubs.o ABSOLUTE
    _printf_wc                               0x00000000   Number         0  stubs.o ABSOLUTE
    _printf_wctomb                           0x00000000   Number         0  stubs.o ABSOLUTE
    _printf_widthprec                        0x00000000   Number         0  stubs.o ABSOLUTE
    _printf_x                                0x00000000   Number         0  stubs.o ABSOLUTE
    __cpp_initialize__aeabi_                  - Undefined Weak Reference
    __cxa_finalize                            - Undefined Weak Reference
    _clock_init                               - Undefined Weak Reference
    _microlib_exit                            - Undefined Weak Reference
    __Vectors_Size                           0x00000188   Number         0  startup_stm32f40_41xxx.o ABSOLUTE
    __Vectors                                0x08000000   Data           4  startup_stm32f40_41xxx.o(RESET)
    __Vectors_End                            0x08000188   Data           0  startup_stm32f40_41xxx.o(RESET)
    __main                                   0x08000189   Thumb Code     0  entry.o(.ARM.Collect$$$$00000000)
    _main_stk                                0x08000189   Thumb Code     0  entry2.o(.ARM.Collect$$$$00000001)
    _main_scatterload                        0x0800018d   Thumb Code     0  entry5.o(.ARM.Collect$$$$00000004)
    __main_after_scatterload                 0x08000191   Thumb Code     0  entry5.o(.ARM.Collect$$$$00000004)
    _main_clock                              0x08000191   Thumb Code     0  entry7b.o(.ARM.Collect$$$$00000008)
    _main_cpp_init                           0x08000191   Thumb Code     0  entry8b.o(.ARM.Collect$$$$0000000A)
    _main_init                               0x08000191   Thumb Code     0  entry9a.o(.ARM.Collect$$$$0000000B)
    __rt_final_cpp                           0x08000199   Thumb Code     0  entry10a.o(.ARM.Collect$$$$0000000D)
    __rt_final_exit                          0x08000199   Thumb Code     0  entry11a.o(.ARM.Collect$$$$0000000F)
    Reset_Handler                            0x0800019d   Thumb Code     8  startup_stm32f40_41xxx.o(.text)
    ADC_IRQHandler                           0x080001b7   Thumb Code     0  startup_stm32f40_41xxx.o(.text)
    CAN1_RX1_IRQHandler                      0x080001b7   Thumb Code     0  startup_stm32f40_41xxx.o(.text)
    CAN1_SCE_IRQHandler                      0x080001b7   Thumb Code     0  startup_stm32f40_41xxx.o(.text)
    CAN1_TX_IRQHandler                       0x080001b7   Thumb Code     0  startup_stm32f40_41xxx.o(.text)
    CAN2_RX0_IRQHandler                      0x080001b7   Thumb Code     0  startup_stm32f40_41xxx.o(.text)
    CAN2_RX1_IRQHandler                      0x080001b7   Thumb Code     0  startup_stm32f40_41xxx.o(.text)
    CAN2_SCE_IRQHandler                      0x080001b7   Thumb Code     0  startup_stm32f40_41xxx.o(.text)
    CAN2_TX_IRQHandler                       0x080001b7   Thumb Code     0  startup_stm32f40_41xxx.o(.text)
    CRYP_IRQHandler                          0x080001b7   Thumb Code     0  startup_stm32f40_41xxx.o(.text)
    DCMI_IRQHandler                          0x080001b7   Thumb Code     0  startup_stm32f40_41xxx.o(.text)
    DMA2_Stream0_IRQHandler                  0x080001b7   Thumb Code     0  startup_stm32f40_41xxx.o(.text)
    ETH_IRQHandler                           0x080001b7   Thumb Code     0  startup_stm32f40_41xxx.o(.text)
    ETH_WKUP_IRQHandler                      0x080001b7   Thumb Code     0  startup_stm32f40_41xxx.o(.text)
    EXTI15_10_IRQHandler                     0x080001b7   Thumb Code     0  startup_stm32f40_41xxx.o(.text)
    EXTI1_IRQHandler                         0x080001b7   Thumb Code     0  startup_stm32f40_41xxx.o(.text)
    EXTI2_IRQHandler                         0x080001b7   Thumb Code     0  startup_stm32f40_41xxx.o(.text)
    EXTI3_IRQHandler                         0x080001b7   Thumb Code     0  startup_stm32f40_41xxx.o(.text)
    EXTI4_IRQHandler                         0x080001b7   Thumb Code     0  startup_stm32f40_41xxx.o(.text)
    EXTI9_5_IRQHandler                       0x080001b7   Thumb Code     0  startup_stm32f40_41xxx.o(.text)
    FLASH_IRQHandler                         0x080001b7   Thumb Code     0  startup_stm32f40_41xxx.o(.text)
    FPU_IRQHandler                           0x080001b7   Thumb Code     0  startup_stm32f40_41xxx.o(.text)
    FSMC_IRQHandler                          0x080001b7   Thumb Code     0  startup_stm32f40_41xxx.o(.text)
    HASH_RNG_IRQHandler                      0x080001b7   Thumb Code     0  startup_stm32f40_41xxx.o(.text)
    I2C1_ER_IRQHandler                       0x080001b7   Thumb Code     0  startup_stm32f40_41xxx.o(.text)
    I2C1_EV_IRQHandler                       0x080001b7   Thumb Code     0  startup_stm32f40_41xxx.o(.text)
    I2C2_ER_IRQHandler                       0x080001b7   Thumb Code     0  startup_stm32f40_41xxx.o(.text)
    I2C2_EV_IRQHandler                       0x080001b7   Thumb Code     0  startup_stm32f40_41xxx.o(.text)
    I2C3_ER_IRQHandler                       0x080001b7   Thumb Code     0  startup_stm32f40_41xxx.o(.text)
    I2C3_EV_IRQHandler                       0x080001b7   Thumb Code     0  startup_stm32f40_41xxx.o(.text)
    OTG_FS_IRQHandler                        0x080001b7   Thumb Code     0  startup_stm32f40_41xxx.o(.text)
    OTG_FS_WKUP_IRQHandler                   0x080001b7   Thumb Code     0  startup_stm32f40_41xxx.o(.text)
    PVD_IRQHandler                           0x080001b7   Thumb Code     0  startup_stm32f40_41xxx.o(.text)
    RCC_IRQHandler                           0x080001b7   Thumb Code     0  startup_stm32f40_41xxx.o(.text)
    RTC_Alarm_IRQHandler                     0x080001b7   Thumb Code     0  startup_stm32f40_41xxx.o(.text)
    RTC_WKUP_IRQHandler                      0x080001b7   Thumb Code     0  startup_stm32f40_41xxx.o(.text)
    SDIO_IRQHandler                          0x080001b7   Thumb Code     0  startup_stm32f40_41xxx.o(.text)
    SPI1_IRQHandler                          0x080001b7   Thumb Code     0  startup_stm32f40_41xxx.o(.text)
    SPI2_IRQHandler                          0x080001b7   Thumb Code     0  startup_stm32f40_41xxx.o(.text)
    SPI3_IRQHandler                          0x080001b7   Thumb Code     0  startup_stm32f40_41xxx.o(.text)
    TAMP_STAMP_IRQHandler                    0x080001b7   Thumb Code     0  startup_stm32f40_41xxx.o(.text)
    TIM1_BRK_TIM9_IRQHandler                 0x080001b7   Thumb Code     0  startup_stm32f40_41xxx.o(.text)
    TIM1_CC_IRQHandler                       0x080001b7   Thumb Code     0  startup_stm32f40_41xxx.o(.text)
    TIM1_TRG_COM_TIM11_IRQHandler            0x080001b7   Thumb Code     0  startup_stm32f40_41xxx.o(.text)
    TIM1_UP_TIM10_IRQHandler                 0x080001b7   Thumb Code     0  startup_stm32f40_41xxx.o(.text)
    TIM3_IRQHandler                          0x080001b7   Thumb Code     0  startup_stm32f40_41xxx.o(.text)
    TIM4_IRQHandler                          0x080001b7   Thumb Code     0  startup_stm32f40_41xxx.o(.text)
    TIM5_IRQHandler                          0x080001b7   Thumb Code     0  startup_stm32f40_41xxx.o(.text)
    TIM6_DAC_IRQHandler                      0x080001b7   Thumb Code     0  startup_stm32f40_41xxx.o(.text)
    TIM7_IRQHandler                          0x080001b7   Thumb Code     0  startup_stm32f40_41xxx.o(.text)
    TIM8_BRK_TIM12_IRQHandler                0x080001b7   Thumb Code     0  startup_stm32f40_41xxx.o(.text)
    TIM8_CC_IRQHandler                       0x080001b7   Thumb Code     0  startup_stm32f40_41xxx.o(.text)
    TIM8_TRG_COM_TIM14_IRQHandler            0x080001b7   Thumb Code     0  startup_stm32f40_41xxx.o(.text)
    TIM8_UP_TIM13_IRQHandler                 0x080001b7   Thumb Code     0  startup_stm32f40_41xxx.o(.text)
    WWDG_IRQHandler                          0x080001b7   Thumb Code     0  startup_stm32f40_41xxx.o(.text)
    __aeabi_memcpy                           0x080001c1   Thumb Code    36  memcpya.o(.text)
    __aeabi_memcpy4                          0x080001c1   Thumb Code     0  memcpya.o(.text)
    __aeabi_memcpy8                          0x080001c1   Thumb Code     0  memcpya.o(.text)
    __aeabi_dadd                             0x080001e5   Thumb Code   322  dadd.o(.text)
    __aeabi_dsub                             0x08000327   Thumb Code     6  dadd.o(.text)
    __aeabi_drsub                            0x0800032d   Thumb Code     6  dadd.o(.text)
    __aeabi_dmul                             0x08000333   Thumb Code   228  dmul.o(.text)
    __aeabi_ddiv                             0x08000417   Thumb Code   222  ddiv.o(.text)
    __aeabi_ui2d                             0x080004f5   Thumb Code    26  dfltui.o(.text)
    __aeabi_d2uiz                            0x0800050f   Thumb Code    50  dfixui.o(.text)
    __aeabi_d2f                              0x08000541   Thumb Code    56  d2f.o(.text)
    __aeabi_uldivmod                         0x08000579   Thumb Code    98  uldiv.o(.text)
    __aeabi_llsl                             0x080005db   Thumb Code    30  llshl.o(.text)
    _ll_shift_l                              0x080005db   Thumb Code     0  llshl.o(.text)
    __aeabi_llsr                             0x080005f9   Thumb Code    32  llushr.o(.text)
    _ll_ushift_r                             0x080005f9   Thumb Code     0  llushr.o(.text)
    __aeabi_lasr                             0x08000619   Thumb Code    36  llsshr.o(.text)
    _ll_sshift_r                             0x08000619   Thumb Code     0  llsshr.o(.text)
    __I$use$fp                               0x0800063d   Thumb Code     0  iusefp.o(.text)
    _float_round                             0x0800063d   Thumb Code    18  fepilogue.o(.text)
    _float_epilogue                          0x0800064f   Thumb Code    92  fepilogue.o(.text)
    _double_round                            0x080006ab   Thumb Code    30  depilogue.o(.text)
    _double_epilogue                         0x080006c9   Thumb Code   156  depilogue.o(.text)
    _dsqrt                                   0x08000765   Thumb Code   162  dsqrt.o(.text)
    __scatterload                            0x08000809   Thumb Code    28  init.o(.text)
    __scatterload_rt2                        0x08000809   Thumb Code     0  init.o(.text)
    __decompress                             0x0800082d   Thumb Code     0  __dczerorl2.o(.text)
    __decompress1                            0x0800082d   Thumb Code    86  __dczerorl2.o(.text)
    ADC_Cmd                                  0x08000883   Thumb Code    20  stm32f4xx_adc.o(i.ADC_Cmd)
    ADC_CommonInit                           0x08000899   Thumb Code    34  stm32f4xx_adc.o(i.ADC_CommonInit)
    ADC_GetConversionValue                   0x080008c5   Thumb Code     6  stm32f4xx_adc.o(i.ADC_GetConversionValue)
    ADC_GetFlagStatus                        0x080008cb   Thumb Code    14  stm32f4xx_adc.o(i.ADC_GetFlagStatus)
    ADC_Init                                 0x080008d9   Thumb Code    66  stm32f4xx_adc.o(i.ADC_Init)
    ADC_RegularChannelConfig                 0x08000925   Thumb Code   116  stm32f4xx_adc.o(i.ADC_RegularChannelConfig)
    ADC_SoftwareStartConv                    0x08000999   Thumb Code    10  stm32f4xx_adc.o(i.ADC_SoftwareStartConv)
    BUZZER_Init                              0x080009a5   Thumb Code    58  buzzer.o(i.BUZZER_Init)
    BUZZER_mission_polling                   0x080009e5   Thumb Code   180  buzzer.o(i.BUZZER_mission_polling)
    BusFault_Handler                         0x08000aa5   Thumb Code     2  stm32fxxx_it.o(i.BusFault_Handler)
    CAN1_Mode_Init                           0x08000aa9   Thumb Code   218  can.o(i.CAN1_Mode_Init)
    CAN1_RX0_IRQHandler                      0x08000b8d   Thumb Code    50  can.o(i.CAN1_RX0_IRQHandler)
    CAN_FilterInit                           0x08000bcd   Thumb Code   194  stm32f4xx_can.o(i.CAN_FilterInit)
    CAN_ITConfig                             0x08000c99   Thumb Code    16  stm32f4xx_can.o(i.CAN_ITConfig)
    CAN_Init                                 0x08000ca9   Thumb Code   232  stm32f4xx_can.o(i.CAN_Init)
    CAN_Receive                              0x08000d91   Thumb Code   142  stm32f4xx_can.o(i.CAN_Receive)
    CAN_Transmit                             0x08000e1f   Thumb Code   164  stm32f4xx_can.o(i.CAN_Transmit)
    DCD_EP_Close                             0x08000ec3   Thumb Code    44  usb_dcd.o(i.DCD_EP_Close)
    DCD_EP_ClrStall                          0x08000eef   Thumb Code    56  usb_dcd.o(i.DCD_EP_ClrStall)
    DCD_EP_Flush                             0x08000f27   Thumb Code    24  usb_dcd.o(i.DCD_EP_Flush)
    DCD_EP_Open                              0x08000f3f   Thumb Code    60  usb_dcd.o(i.DCD_EP_Open)
    DCD_EP_PrepareRx                         0x08000f7b   Thumb Code    68  usb_dcd.o(i.DCD_EP_PrepareRx)
    DCD_EP_SetAddress                        0x08000fbf   Thumb Code    16  usb_dcd.o(i.DCD_EP_SetAddress)
    DCD_EP_Stall                             0x08000fcf   Thumb Code    56  usb_dcd.o(i.DCD_EP_Stall)
    DCD_EP_Tx                                0x08001007   Thumb Code    62  usb_dcd.o(i.DCD_EP_Tx)
    DCD_Init                                 0x08001339   Thumb Code   146  usb_dcd.o(i.DCD_Init)
    DMA1_Stream0_IRQHandler                  0x0800143d   Thumb Code     6  tm_stm32f4_dma.o(i.DMA1_Stream0_IRQHandler)
    DMA1_Stream1_IRQHandler                  0x08001449   Thumb Code     6  tm_stm32f4_dma.o(i.DMA1_Stream1_IRQHandler)
    DMA1_Stream2_IRQHandler                  0x08001455   Thumb Code     6  tm_stm32f4_dma.o(i.DMA1_Stream2_IRQHandler)
    DMA1_Stream3_IRQHandler                  0x08001461   Thumb Code     6  tm_stm32f4_dma.o(i.DMA1_Stream3_IRQHandler)
    DMA1_Stream4_IRQHandler                  0x0800146d   Thumb Code     6  tm_stm32f4_dma.o(i.DMA1_Stream4_IRQHandler)
    DMA1_Stream5_IRQHandler                  0x08001479   Thumb Code     6  tm_stm32f4_dma.o(i.DMA1_Stream5_IRQHandler)
    DMA1_Stream6_IRQHandler                  0x08001485   Thumb Code     6  tm_stm32f4_dma.o(i.DMA1_Stream6_IRQHandler)
    DMA1_Stream7_IRQHandler                  0x08001491   Thumb Code     6  tm_stm32f4_dma.o(i.DMA1_Stream7_IRQHandler)
    DMA2_Stream1_IRQHandler                  0x0800149d   Thumb Code     6  tm_stm32f4_dma.o(i.DMA2_Stream1_IRQHandler)
    DMA2_Stream2_IRQHandler                  0x080014a9   Thumb Code     6  tm_stm32f4_dma.o(i.DMA2_Stream2_IRQHandler)
    DMA2_Stream3_IRQHandler                  0x080014b5   Thumb Code     6  tm_stm32f4_dma.o(i.DMA2_Stream3_IRQHandler)
    DMA2_Stream4_IRQHandler                  0x080014c1   Thumb Code     6  tm_stm32f4_dma.o(i.DMA2_Stream4_IRQHandler)
    DMA2_Stream5_IRQHandler                  0x080014cd   Thumb Code     6  tm_stm32f4_dma.o(i.DMA2_Stream5_IRQHandler)
    DMA2_Stream6_IRQHandler                  0x080014d9   Thumb Code     6  tm_stm32f4_dma.o(i.DMA2_Stream6_IRQHandler)
    DMA2_Stream7_IRQHandler                  0x080014e5   Thumb Code     6  tm_stm32f4_dma.o(i.DMA2_Stream7_IRQHandler)
    DMA_Init                                 0x080014f1   Thumb Code    80  stm32f4xx_dma.o(i.DMA_Init)
    DebugMon_Handler                         0x08001545   Thumb Code     2  stm32fxxx_it.o(i.DebugMon_Handler)
    EXTI0_IRQHandler                         0x08001549   Thumb Code    18  coder.o(i.EXTI0_IRQHandler)
    EXTIX_Init                               0x08001565   Thumb Code    74  coder.o(i.EXTIX_Init)
    EXTI_ClearITPendingBit                   0x080015b1   Thumb Code     6  stm32f4xx_exti.o(i.EXTI_ClearITPendingBit)
    EXTI_Init                                0x080015bd   Thumb Code   108  stm32f4xx_exti.o(i.EXTI_Init)
    FLASH_EraseSector                        0x0800162d   Thumb Code   104  stm32f4xx_flash.o(i.FLASH_EraseSector)
    FLASH_GetStatus                          0x08001699   Thumb Code    56  stm32f4xx_flash.o(i.FLASH_GetStatus)
    FLASH_Lock                               0x080016d5   Thumb Code    12  stm32f4xx_flash.o(i.FLASH_Lock)
    FLASH_ProgramWord                        0x080016e5   Thumb Code    56  stm32f4xx_flash.o(i.FLASH_ProgramWord)
    FLASH_Unlock                             0x08001721   Thumb Code    22  stm32f4xx_flash.o(i.FLASH_Unlock)
    FLASH_WaitForLastOperation               0x08001745   Thumb Code    30  stm32f4xx_flash.o(i.FLASH_WaitForLastOperation)
    GPIO_Init                                0x08001763   Thumb Code   120  stm32f4xx_gpio.o(i.GPIO_Init)
    GPIO_PinAFConfig                         0x080017db   Thumb Code    32  stm32f4xx_gpio.o(i.GPIO_PinAFConfig)
    GPIO_ResetBits                           0x080017fb   Thumb Code     4  stm32f4xx_gpio.o(i.GPIO_ResetBits)
    GPIO_SetBits                             0x080017ff   Thumb Code     4  stm32f4xx_gpio.o(i.GPIO_SetBits)
    Get_Adc                                  0x08001805   Thumb Code    44  adc.o(i.Get_Adc)
    Get_Adc_Average                          0x08001835   Thumb Code   154  adc.o(i.Get_Adc_Average)
    HardFault_Handler                        0x080018cf   Thumb Code     2  stm32fxxx_it.o(i.HardFault_Handler)
    LED1_OFF                                 0x080018d1   Thumb Code     8  notification.o(i.LED1_OFF)
    LED1_ON                                  0x080018dd   Thumb Code     8  notification.o(i.LED1_ON)
    LED1_init                                0x080018e9   Thumb Code    58  notification.o(i.LED1_init)
    LED_OFF                                  0x08001929   Thumb Code     8  notification.o(i.LED_OFF)
    LED_ON                                   0x08001935   Thumb Code     8  notification.o(i.LED_ON)
    LED_init                                 0x08001941   Thumb Code    54  notification.o(i.LED_init)
    LM75_parpare_buffer                      0x0800197d   Thumb Code   120  temp_control.o(i.LM75_parpare_buffer)
    MM_position                              0x08001a1d   Thumb Code    50  msd_test.o(i.MM_position)
    MSD_Init                                 0x08001af9   Thumb Code    40  microstepdriver.o(i.MSD_Init)
    MSD_Move                                 0x08001b21   Thumb Code   314  microstepdriver.o(i.MSD_Move)
    MSD_StepCounter                          0x08001c7d   Thumb Code    18  microstepdriver.o(i.MSD_StepCounter)
    MemManage_Handler                        0x08001c95   Thumb Code     2  stm32fxxx_it.o(i.MemManage_Handler)
    NMI_Handler                              0x08001c97   Thumb Code     2  stm32fxxx_it.o(i.NMI_Handler)
    NVIC_Init                                0x08001c99   Thumb Code    96  misc.o(i.NVIC_Init)
    NVIC_PriorityGroupConfig                 0x08001cfd   Thumb Code    10  misc.o(i.NVIC_PriorityGroupConfig)
    OTG_HS_EP1_IN_IRQHandler                 0x08001d11   Thumb Code     6  stm32fxxx_it.o(i.OTG_HS_EP1_IN_IRQHandler)
    OTG_HS_EP1_OUT_IRQHandler                0x08001d1d   Thumb Code     6  stm32fxxx_it.o(i.OTG_HS_EP1_OUT_IRQHandler)
    OTG_HS_IRQHandler                        0x08001d29   Thumb Code     6  stm32fxxx_it.o(i.OTG_HS_IRQHandler)
    OTG_HS_WKUP_IRQHandler                   0x08001d35   Thumb Code    40  stm32fxxx_it.o(i.OTG_HS_WKUP_IRQHandler)
    PendSV_Handler                           0x08001d65   Thumb Code     2  stm32fxxx_it.o(i.PendSV_Handler)
    RCC_AHB1PeriphClockCmd                   0x08001d69   Thumb Code    18  stm32f4xx_rcc.o(i.RCC_AHB1PeriphClockCmd)
    RCC_APB1PeriphClockCmd                   0x08001d81   Thumb Code    18  stm32f4xx_rcc.o(i.RCC_APB1PeriphClockCmd)
    RCC_APB1PeriphResetCmd                   0x08001d99   Thumb Code    18  stm32f4xx_rcc.o(i.RCC_APB1PeriphResetCmd)
    RCC_APB2PeriphClockCmd                   0x08001db1   Thumb Code    18  stm32f4xx_rcc.o(i.RCC_APB2PeriphClockCmd)
    RCC_APB2PeriphResetCmd                   0x08001dc9   Thumb Code    18  stm32f4xx_rcc.o(i.RCC_APB2PeriphResetCmd)
    RCC_GetClocksFreq                        0x08001de1   Thumb Code   132  stm32f4xx_rcc.o(i.RCC_GetClocksFreq)
    RCC_GetFlagStatus                        0x08001e71   Thumb Code    46  stm32f4xx_rcc.o(i.RCC_GetFlagStatus)
    STMFLASH_GetFlashSector                  0x08001ea5   Thumb Code   114  stmflash.o(i.STMFLASH_GetFlashSector)
    STMFLASH_Read                            0x08001f45   Thumb Code    20  stmflash.o(i.STMFLASH_Read)
    STMFLASH_Write                           0x08001f59   Thumb Code   110  stmflash.o(i.STMFLASH_Write)
    SVC_Handler                              0x08001fcd   Thumb Code     2  stm32fxxx_it.o(i.SVC_Handler)
    SYSCFG_EXTILineConfig                    0x08001fd1   Thumb Code    42  stm32f4xx_syscfg.o(i.SYSCFG_EXTILineConfig)
    SysTick_Handler                          0x080020b5   Thumb Code    10  stm32fxxx_it.o(i.SysTick_Handler)
    SystemInit                               0x080020c5   Thumb Code    74  system_stm32f4xx.o(i.SystemInit)
    TIM2_IRQHandler                          0x08002185   Thumb Code   432  microstepdriver.o(i.TIM2_IRQHandler)
    TIM_ARRPreloadConfig                     0x0800233d   Thumb Code    20  stm32f4xx_tim.o(i.TIM_ARRPreloadConfig)
    TIM_ClearFlag                            0x08002351   Thumb Code     6  stm32f4xx_tim.o(i.TIM_ClearFlag)
    TIM_ClearITPendingBit                    0x08002357   Thumb Code     6  stm32f4xx_tim.o(i.TIM_ClearITPendingBit)
    TIM_Cmd                                  0x0800235d   Thumb Code    20  stm32f4xx_tim.o(i.TIM_Cmd)
    TIM_EncoderInterfaceConfig               0x08002371   Thumb Code    50  stm32f4xx_tim.o(i.TIM_EncoderInterfaceConfig)
    TIM_GetITStatus                          0x080023a3   Thumb Code    24  stm32f4xx_tim.o(i.TIM_GetITStatus)
    TIM_ICInit                               0x080023bb   Thumb Code   172  stm32f4xx_tim.o(i.TIM_ICInit)
    TIM_ICStructInit                         0x08002467   Thumb Code    16  stm32f4xx_tim.o(i.TIM_ICStructInit)
    TIM_ITConfig                             0x08002477   Thumb Code    16  stm32f4xx_tim.o(i.TIM_ITConfig)
    TIM_OC2Init                              0x08002515   Thumb Code   120  stm32f4xx_tim.o(i.TIM_OC2Init)
    TIM_OC2PreloadConfig                     0x08002595   Thumb Code    20  stm32f4xx_tim.o(i.TIM_OC2PreloadConfig)
    TIM_SetAutoreload                        0x080025a9   Thumb Code     4  stm32f4xx_tim.o(i.TIM_SetAutoreload)
    TIM_SetCompare2                          0x080025ad   Thumb Code     4  stm32f4xx_tim.o(i.TIM_SetCompare2)
    TIM_SetCounter                           0x080025b1   Thumb Code     4  stm32f4xx_tim.o(i.TIM_SetCounter)
    TIM_SetIC1Prescaler                      0x080025b5   Thumb Code    16  stm32f4xx_tim.o(i.TIM_SetIC1Prescaler)
    TIM_SetIC2Prescaler                      0x080025c5   Thumb Code    24  stm32f4xx_tim.o(i.TIM_SetIC2Prescaler)
    TIM_SetIC3Prescaler                      0x080025dd   Thumb Code    16  stm32f4xx_tim.o(i.TIM_SetIC3Prescaler)
    TIM_SetIC4Prescaler                      0x080025ed   Thumb Code    24  stm32f4xx_tim.o(i.TIM_SetIC4Prescaler)
    TIM_TimeBaseInit                         0x08002605   Thumb Code    96  stm32f4xx_tim.o(i.TIM_TimeBaseInit)
    TIM_TimeBaseStructInit                   0x08002681   Thumb Code    18  stm32f4xx_tim.o(i.TIM_TimeBaseStructInit)
    TIM_UpdateRequestConfig                  0x08002693   Thumb Code    20  stm32f4xx_tim.o(i.TIM_UpdateRequestConfig)
    TM_DMA_ClearFlag                         0x080026a9   Thumb Code    52  tm_stm32f4_dma.o(i.TM_DMA_ClearFlag)
    TM_DMA_ClearFlags                        0x080026ed   Thumb Code     6  tm_stm32f4_dma.o(i.TM_DMA_ClearFlags)
    TM_DMA_DirectModeErrorHandler            0x080026f3   Thumb Code     2  tm_stm32f4_dma.o(i.TM_DMA_DirectModeErrorHandler)
    TM_DMA_FIFOErrorHandler                  0x080026f5   Thumb Code     2  tm_stm32f4_dma.o(i.TM_DMA_FIFOErrorHandler)
    TM_DMA_GetFlags                          0x080026f9   Thumb Code    50  tm_stm32f4_dma.o(i.TM_DMA_GetFlags)
    TM_DMA_HalfTransferCompleteHandler       0x0800273d   Thumb Code     2  tm_stm32f4_dma.o(i.TM_DMA_HalfTransferCompleteHandler)
    TM_DMA_TransferCompleteHandler           0x080027a5   Thumb Code     2  tm_stm32f4_dma.o(i.TM_DMA_TransferCompleteHandler)
    TM_DMA_TransferErrorHandler              0x080027a7   Thumb Code     2  tm_stm32f4_dma.o(i.TM_DMA_TransferErrorHandler)
    TM_GPIO_GetPortSource                    0x080027a9   Thumb Code    10  tm_stm32f4_gpio.o(i.TM_GPIO_GetPortSource)
    TM_GPIO_INT_EnableClock                  0x080027b9   Thumb Code    20  tm_stm32f4_gpio.o(i.TM_GPIO_INT_EnableClock)
    TM_GPIO_INT_Init                         0x080027d1   Thumb Code   130  tm_stm32f4_gpio.o(i.TM_GPIO_INT_Init)
    TM_GPIO_Init                             0x08002859   Thumb Code    38  tm_stm32f4_gpio.o(i.TM_GPIO_Init)
    TM_GPIO_InitAlternate                    0x0800287f   Thumb Code    92  tm_stm32f4_gpio.o(i.TM_GPIO_InitAlternate)
    TM_UART4_InitPins                        0x080028dd   Thumb Code    60  tm_stm32f4_usart.o(i.TM_UART4_InitPins)
    TM_UART5_InitPins                        0x08002925   Thumb Code    56  tm_stm32f4_usart.o(i.TM_UART5_InitPins)
    TM_USART1_InitPins                       0x08002969   Thumb Code    60  tm_stm32f4_usart.o(i.TM_USART1_InitPins)
    TM_USART2_InitPins                       0x080029b1   Thumb Code    58  tm_stm32f4_usart.o(i.TM_USART2_InitPins)
    TM_USART3_InitPins                       0x080029f9   Thumb Code    76  tm_stm32f4_usart.o(i.TM_USART3_InitPins)
    TM_USART6_InitPins                       0x08002a55   Thumb Code    60  tm_stm32f4_usart.o(i.TM_USART6_InitPins)
    TM_USART_DMA_Init                        0x08002af9   Thumb Code    72  tm_stm32f4_usart_dma.o(i.TM_USART_DMA_Init)
    TM_USART_DMA_Send                        0x08002b4d   Thumb Code    78  tm_stm32f4_usart_dma.o(i.TM_USART_DMA_Send)
    TM_USART_FindCharacter                   0x08002ba1   Thumb Code    50  tm_stm32f4_usart.o(i.TM_USART_FindCharacter)
    TM_USART_Getc                            0x08002bd3   Thumb Code    52  tm_stm32f4_usart.o(i.TM_USART_Getc)
    TM_USART_Gets                            0x08002c07   Thumb Code    84  tm_stm32f4_usart.o(i.TM_USART_Gets)
    TM_USART_INT_GetSubPriority              0x08002c5d   Thumb Code    52  tm_stm32f4_usart.o(i.TM_USART_INT_GetSubPriority)
    TM_USART_INT_GetUsart                    0x08002ca9   Thumb Code    62  tm_stm32f4_usart.o(i.TM_USART_INT_GetUsart)
    TM_USART_INT_InsertToBuffer              0x08002e49   Thumb Code    38  tm_stm32f4_usart.o(i.TM_USART_INT_InsertToBuffer)
    TM_USART_Init                            0x08002e71   Thumb Code   158  tm_stm32f4_usart.o(i.TM_USART_Init)
    TM_USART_InitCustomPinsCallback          0x08002f29   Thumb Code     2  tm_stm32f4_usart.o(i.TM_USART_InitCustomPinsCallback)
    TM_WATCHDOG_Init                         0x08002f2d   Thumb Code   174  tm_stm32f4_watchdog.o(i.TM_WATCHDOG_Init)
    UART4_IRQHandler                         0x08002fe5   Thumb Code    24  tm_stm32f4_usart.o(i.UART4_IRQHandler)
    UART5_IRQHandler                         0x08003005   Thumb Code    20  tm_stm32f4_usart.o(i.UART5_IRQHandler)
    USART1_IRQHandler                        0x08003021   Thumb Code    20  tm_stm32f4_usart.o(i.USART1_IRQHandler)
    USART2_IRQHandler                        0x0800303d   Thumb Code    24  tm_stm32f4_usart.o(i.USART2_IRQHandler)
    USART3_IRQHandler                        0x0800305d   Thumb Code    24  tm_stm32f4_usart.o(i.USART3_IRQHandler)
    USART6_IRQHandler                        0x0800307d   Thumb Code    24  tm_stm32f4_usart.o(i.USART6_IRQHandler)
    USART_DeInit                             0x0800309d   Thumb Code   138  stm32f4xx_usart.o(i.USART_DeInit)
    USART_Init                               0x08003149   Thumb Code   164  stm32f4xx_usart.o(i.USART_Init)
    USBD_ClrCfg                              0x080031f5   Thumb Code    14  usbd_core.o(i.USBD_ClrCfg)
    USBD_CtlContinueRx                       0x08003203   Thumb Code    18  usbd_ioreq.o(i.USBD_CtlContinueRx)
    USBD_CtlContinueSendData                 0x08003215   Thumb Code    18  usbd_ioreq.o(i.USBD_CtlContinueSendData)
    USBD_CtlError                            0x08003227   Thumb Code    28  usbd_req.o(i.USBD_CtlError)
    USBD_CtlPrepareRx                        0x08003243   Thumb Code    32  usbd_ioreq.o(i.USBD_CtlPrepareRx)
    USBD_CtlReceiveStatus                    0x08003263   Thumb Code    34  usbd_ioreq.o(i.USBD_CtlReceiveStatus)
    USBD_CtlSendData                         0x08003285   Thumb Code    32  usbd_ioreq.o(i.USBD_CtlSendData)
    USBD_CtlSendStatus                       0x080032a5   Thumb Code    34  usbd_ioreq.o(i.USBD_CtlSendStatus)
    USBD_GetRxCount                          0x08003511   Thumb Code    16  usbd_ioreq.o(i.USBD_GetRxCount)
    USBD_GetString                           0x08003521   Thumb Code    70  usbd_req.o(i.USBD_GetString)
    USBD_Init                                0x08003567   Thumb Code    52  usbd_core.o(i.USBD_Init)
    USBD_OTG_EP1IN_ISR_Handler               0x080035b9   Thumb Code   116  usb_dcd_int.o(i.USBD_OTG_EP1IN_ISR_Handler)
    USBD_OTG_EP1OUT_ISR_Handler              0x08003631   Thumb Code    74  usb_dcd_int.o(i.USBD_OTG_EP1OUT_ISR_Handler)
    USBD_OTG_ISR_Handler                     0x08003681   Thumb Code   326  usb_dcd_int.o(i.USBD_OTG_ISR_Handler)
    USBD_ParseSetupRequest                   0x080037cd   Thumb Code    68  usbd_req.o(i.USBD_ParseSetupRequest)
    USBD_SetCfg                              0x08003865   Thumb Code    26  usbd_core.o(i.USBD_SetCfg)
    USBD_StdDevReq                           0x080039b9   Thumb Code   236  usbd_req.o(i.USBD_StdDevReq)
    USBD_StdEPReq                            0x08003aa9   Thumb Code   208  usbd_req.o(i.USBD_StdEPReq)
    USBD_StdItfReq                           0x08003b7d   Thumb Code    54  usbd_req.o(i.USBD_StdItfReq)
    USBD_USR_ConfigStrDescriptor             0x08003bd1   Thumb Code    16  usbd_desc.o(i.USBD_USR_ConfigStrDescriptor)
    USBD_USR_DeviceConfigured                0x08003bf5   Thumb Code    24  usbd_usr.o(i.USBD_USR_DeviceConfigured)
    USBD_USR_DeviceConnected                 0x08003c11   Thumb Code    12  usbd_usr.o(i.USBD_USR_DeviceConnected)
    USBD_USR_DeviceDescriptor                0x08003c21   Thumb Code     8  usbd_desc.o(i.USBD_USR_DeviceDescriptor)
    USBD_USR_DeviceDisconnected              0x08003c2d   Thumb Code    14  usbd_usr.o(i.USBD_USR_DeviceDisconnected)
    USBD_USR_DeviceReset                     0x08003c41   Thumb Code     2  usbd_usr.o(i.USBD_USR_DeviceReset)
    USBD_USR_DeviceResumed                   0x08003c45   Thumb Code    18  usbd_usr.o(i.USBD_USR_DeviceResumed)
    USBD_USR_DeviceSuspended                 0x08003c5d   Thumb Code    14  usbd_usr.o(i.USBD_USR_DeviceSuspended)
    USBD_USR_Init                            0x08003c71   Thumb Code     2  usbd_usr.o(i.USBD_USR_Init)
    USBD_USR_InterfaceStrDescriptor          0x08003c75   Thumb Code    16  usbd_desc.o(i.USBD_USR_InterfaceStrDescriptor)
    USBD_USR_LangIDStrDescriptor             0x08003c9d   Thumb Code     8  usbd_desc.o(i.USBD_USR_LangIDStrDescriptor)
    USBD_USR_ManufacturerStrDescriptor       0x08003ca9   Thumb Code    16  usbd_desc.o(i.USBD_USR_ManufacturerStrDescriptor)
    USBD_USR_ProductStrDescriptor            0x08003cc9   Thumb Code    22  usbd_desc.o(i.USBD_USR_ProductStrDescriptor)
    USBD_USR_SerialStrDescriptor             0x08003d0d   Thumb Code    44  usbd_desc.o(i.USBD_USR_SerialStrDescriptor)
    USB_OTG_BSP_EnableInterrupt              0x08003d6d   Thumb Code   102  usb_bsp.o(i.USB_OTG_BSP_EnableInterrupt)
    USB_OTG_BSP_Init                         0x08003dd5   Thumb Code   306  usb_bsp.o(i.USB_OTG_BSP_Init)
    USB_OTG_BSP_mDelay                       0x08003f15   Thumb Code    10  usb_bsp.o(i.USB_OTG_BSP_mDelay)
    USB_OTG_BSP_uDelay                       0x08003f1f   Thumb Code    22  usb_bsp.o(i.USB_OTG_BSP_uDelay)
    USB_OTG_CoreInit                         0x08003f35   Thumb Code   128  usb_core.o(i.USB_OTG_CoreInit)
    USB_OTG_CoreInitDev                      0x08003fb5   Thumb Code   342  usb_core.o(i.USB_OTG_CoreInitDev)
    USB_OTG_DisableGlobalInt                 0x08004165   Thumb Code    16  usb_core.o(i.USB_OTG_DisableGlobalInt)
    USB_OTG_EP0Activate                      0x08004175   Thumb Code    58  usb_core.o(i.USB_OTG_EP0Activate)
    USB_OTG_EP0StartXfer                     0x080041af   Thumb Code   184  usb_core.o(i.USB_OTG_EP0StartXfer)
    USB_OTG_EP0_OutStart                     0x08004269   Thumb Code    32  usb_core.o(i.USB_OTG_EP0_OutStart)
    USB_OTG_EPActivate                       0x0800428d   Thumb Code   104  usb_core.o(i.USB_OTG_EPActivate)
    USB_OTG_EPClearStall                     0x080042f5   Thumb Code    50  usb_core.o(i.USB_OTG_EPClearStall)
    USB_OTG_EPDeactivate                     0x08004327   Thumb Code    78  usb_core.o(i.USB_OTG_EPDeactivate)
    USB_OTG_EPSetStall                       0x08004375   Thumb Code    48  usb_core.o(i.USB_OTG_EPSetStall)
    USB_OTG_EPStartXfer                      0x080043a5   Thumb Code   298  usb_core.o(i.USB_OTG_EPStartXfer)
    USB_OTG_EnableDevInt                     0x080044d1   Thumb Code    66  usb_core.o(i.USB_OTG_EnableDevInt)
    USB_OTG_EnableGlobalInt                  0x08004519   Thumb Code    16  usb_core.o(i.USB_OTG_EnableGlobalInt)
    USB_OTG_FlushRxFifo                      0x08004529   Thumb Code    54  usb_core.o(i.USB_OTG_FlushRxFifo)
    USB_OTG_FlushTxFifo                      0x08004565   Thumb Code    62  usb_core.o(i.USB_OTG_FlushTxFifo)
    USB_OTG_GetDeviceSpeed                   0x080045a9   Thumb Code    38  usb_core.o(i.USB_OTG_GetDeviceSpeed)
    USB_OTG_InitDevSpeed                     0x080045cf   Thumb Code    12  usb_core.o(i.USB_OTG_InitDevSpeed)
    USB_OTG_IsDeviceMode                     0x080045db   Thumb Code    18  usb_core.o(i.USB_OTG_IsDeviceMode)
    USB_OTG_ReadCoreItr                      0x080045ed   Thumb Code    10  usb_core.o(i.USB_OTG_ReadCoreItr)
    USB_OTG_ReadDevAllInEPItr                0x080045f7   Thumb Code    12  usb_core.o(i.USB_OTG_ReadDevAllInEPItr)
    USB_OTG_ReadDevAllOutEp_itr              0x08004603   Thumb Code    12  usb_core.o(i.USB_OTG_ReadDevAllOutEp_itr)
    USB_OTG_ReadDevOutEP_itr                 0x0800460f   Thumb Code    16  usb_core.o(i.USB_OTG_ReadDevOutEP_itr)
    USB_OTG_ReadPacket                       0x0800461f   Thumb Code    32  usb_core.o(i.USB_OTG_ReadPacket)
    USB_OTG_SelectCore                       0x08004641   Thumb Code   190  usb_core.o(i.USB_OTG_SelectCore)
    USB_OTG_SetCurrentMode                   0x08004705   Thumb Code    42  usb_core.o(i.USB_OTG_SetCurrentMode)
    USB_OTG_UngateClock                      0x0800472f   Thumb Code    30  usb_core.o(i.USB_OTG_UngateClock)
    USB_OTG_WritePacket                      0x0800474d   Thumb Code    40  usb_core.o(i.USB_OTG_WritePacket)
    UsageFault_Handler                       0x08004775   Thumb Code     2  stm32fxxx_it.o(i.UsageFault_Handler)
    __0sprintf$8                             0x08004779   Thumb Code    34  printf8.o(i.__0sprintf$8)
    __1sprintf$8                             0x08004779   Thumb Code     0  printf8.o(i.__0sprintf$8)
    __2sprintf                               0x08004779   Thumb Code     0  printf8.o(i.__0sprintf$8)
    __hardfp_sqrt                            0x080047a1   Thumb Code   122  sqrt.o(i.__hardfp_sqrt)
    __scatterload_copy                       0x0800481b   Thumb Code    14  handlers.o(i.__scatterload_copy)
    __scatterload_null                       0x08004829   Thumb Code     2  handlers.o(i.__scatterload_null)
    __scatterload_zeroinit                   0x0800482b   Thumb Code    14  handlers.o(i.__scatterload_zeroinit)
    __set_errno                              0x08004839   Thumb Code     6  errno.o(i.__set_errno)
    action_failed_send                       0x08004cb1   Thumb Code    32  can.o(i.action_failed_send)
    action_success_send                      0x08004cd9   Thumb Code    26  can.o(i.action_success_send)
    action_value_send                        0x08004cfd   Thumb Code    44  can.o(i.action_value_send)
    action_value_send_none_80                0x08004d2d   Thumb Code    34  can.o(i.action_value_send_none_80)
    adc_value_conv_temperature               0x08004d55   Thumb Code    70  b3470.o(i.adc_value_conv_temperature)
    adc_value_filter                         0x08004da1   Thumb Code   134  b3470.o(i.adc_value_filter)
    adc_value_get                            0x08004e29   Thumb Code    44  b3470.o(i.adc_value_get)
    angle                                    0x08004e59   Thumb Code   210  msd_test.o(i.angle)
    b3470_get_temperature_offset             0x08004f65   Thumb Code    26  b3470.o(i.b3470_get_temperature_offset)
    b3470_init                               0x08004f81   Thumb Code   152  b3470.o(i.b3470_init)
    buzzer_mission                           0x08005025   Thumb Code    10  buzzer.o(i.buzzer_mission)
    can_mutil_frame_send                     0x08005035   Thumb Code   204  can.o(i.can_mutil_frame_send)
    close_inter_fan                          0x0800510d   Thumb Code    10  cooler.o(i.close_inter_fan)
    coder_gpio_init                          0x0800511d   Thumb Code    42  coder.o(i.coder_gpio_init)
    configureEncoder                         0x0800514d   Thumb Code   182  coder.o(i.configureEncoder)
    cooler_init                              0x0800520d   Thumb Code    52  cooler.o(i.cooler_init)
    cooler_off                               0x08005245   Thumb Code    42  cooler.o(i.cooler_off)
    cooler_on                                0x0800527d   Thumb Code    38  cooler.o(i.cooler_on)
    cooler_pwm_mission                       0x080052ad   Thumb Code    94  cooler.o(i.cooler_pwm_mission)
    flash_get_para                           0x08005315   Thumb Code   158  stmflash.o(i.flash_get_para)
    flash_init                               0x080053b9   Thumb Code    20  stmflash.o(i.flash_init)
    flash_mission_polling                    0x080053d5   Thumb Code   126  stmflash.o(i.flash_mission_polling)
    get_steps                                0x08005461   Thumb Code    28  microstepdriver.o(i.get_steps)
    led_mission_polling                      0x08005485   Thumb Code   210  notification.o(i.led_mission_polling)
    led_to_notification                      0x08005561   Thumb Code    10  notification.o(i.led_to_notification)
    lm75a_mission_polling                    0x08005571   Thumb Code   118  temp_control.o(i.lm75a_mission_polling)
    lm75a_temp_read_polling                  0x080055f5   Thumb Code   286  temp_control.o(i.lm75a_temp_read_polling)
    main                                     0x0800571d   Thumb Code   548  main.o(i.main)
    mission_failed_send                      0x08005991   Thumb Code    24  can.o(i.mission_failed_send)
    mission_polling                          0x080059ad   Thumb Code   778  mission.o(i.mission_polling)
    mission_success_send                     0x08005d0d   Thumb Code    24  can.o(i.mission_success_send)
    motor_finish                             0x08005d29   Thumb Code    16  msd_test.o(i.motor_finish)
    motor_inject_offset_position             0x08005d41   Thumb Code   184  msd_test.o(i.motor_inject_offset_position)
    motor_maintain_polling                   0x08005e05   Thumb Code   180  msd_test.o(i.motor_maintain_polling)
    motor_move_polling                       0x08005ec9   Thumb Code    80  msd_test.o(i.motor_move_polling)
    motor_reset                              0x08005f25   Thumb Code   272  msd_test.o(i.motor_reset)
    motor_shocking                           0x08006051   Thumb Code   194  msd_test.o(i.motor_shocking)
    motor_timeout_check                      0x08006125   Thumb Code    62  msd_test.o(i.motor_timeout_check)
    motor_timer_set                          0x08006171   Thumb Code    16  msd_test.o(i.motor_timer_set)
    move_to_position                         0x08006189   Thumb Code    52  msd_test.o(i.move_to_position)
    offset_calc                              0x080061c1   Thumb Code   336  stmflash.o(i.offset_calc)
    one_can_frame_send                       0x08006319   Thumb Code    76  can.o(i.one_can_frame_send)
    one_dimension_code_init                  0x08006371   Thumb Code    58  one_dimension_code.o(i.one_dimension_code_init)
    one_dimension_code_mission_polling       0x080063b9   Thumb Code   178  one_dimension_code.o(i.one_dimension_code_mission_polling)
    one_dimension_code_read                  0x08006479   Thumb Code    10  one_dimension_code.o(i.one_dimension_code_read)
    open_inter_fan                           0x0800648d   Thumb Code    10  cooler.o(i.open_inter_fan)
    parpareUSBframe                          0x0800649d   Thumb Code   106  can.o(i.parpareUSBframe)
    parpare_buffer                           0x08006511   Thumb Code   114  usart_screen.o(i.parpare_buffer)
    poniter_add                              0x080065bd   Thumb Code    22  can.o(i.poniter_add)
    poniter_plus_one                         0x080065d3   Thumb Code    18  can.o(i.poniter_plus_one)
    power_init                               0x080065e5   Thumb Code    50  cooler.o(i.power_init)
    power_off                                0x0800661d   Thumb Code    22  cooler.o(i.power_off)
    power_on                                 0x08006639   Thumb Code    22  cooler.o(i.power_on)
    record_position                          0x08006655   Thumb Code    54  microstepdriver.o(i.record_position)
    record_steps                             0x08006691   Thumb Code    44  microstepdriver.o(i.record_steps)
    reser_screen                             0x080066c9   Thumb Code    36  temp_control.o(i.reser_screen)
    step_to_move_calc                        0x080066fd   Thumb Code   222  msd_test.o(i.step_to_move_calc)
    stmflash_read_reverse                    0x08006815   Thumb Code    50  stmflash.o(i.stmflash_read_reverse)
    su_mission_polling                       0x0800684d   Thumb Code   190  usart_screen.o(i.su_mission_polling)
    system_attribute_init                    0x08006921   Thumb Code    34  wwdg.o(i.system_attribute_init)
    temp_display_mission                     0x08006961   Thumb Code   512  temp_control.o(i.temp_display_mission)
    temp_faded                               0x08006b85   Thumb Code    64  temp_control.o(i.temp_faded)
    timer_reset                              0x08006bc9   Thumb Code    78  mission.o(i.timer_reset)
    watch_dog_recovery                       0x08006e29   Thumb Code    94  wwdg.o(i.watch_dog_recovery)
    wdg_flag_clear                           0x08006ea1   Thumb Code     6  wwdg.o(i.wdg_flag_clear)
    wdg_flag_set                             0x08006ea7   Thumb Code     6  wwdg.o(i.wdg_flag_set)
    wdg_motor_mission_recovery               0x08006ead   Thumb Code    12  wwdg.o(i.wdg_motor_mission_recovery)
    wdg_motor_mission_set                    0x08006eb9   Thumb Code    18  wwdg.o(i.wdg_motor_mission_set)
    Region$$Table$$Base                      0x08006ee0   Number         0  anon$$obj.o(Region$$Table)
    Region$$Table$$Limit                     0x08006f00   Number         0  anon$$obj.o(Region$$Table)
    temp_control                             0x10000000   Data           1  can.o(.ARM.__AT_0x10000000)
    power_satus                              0x10000004   Data           1  can.o(.ARM.__AT_0x10000004)
    USBRxCanBufferIndex                      0x10000008   Data           1  can.o(.ARM.__AT_0x10000008)
    USBRxIndex                               0x1000000c   Data           1  can.o(.ARM.__AT_0x1000000C)
    canRxMsgBufferIndex                      0x10000010   Data           2  can.o(.ARM.__AT_0x10000010)
    canRxIndex                               0x10000014   Data           2  can.o(.ARM.__AT_0x10000014)
    usart_state                              0x10000018   Data           1  mission.o(.ARM.__AT_0x10000018)
    CanRxMessage                             0x10000218   Data       10000  can.o(.ARM.__AT_0x10000218)
    USBRxMessage                             0x10002928   Data        5100  can.o(.ARM.__AT_0x10002928)
    DeviceConfigured                         0x20000000   Data           1  usbd_usr.o(.data)
    USR_cb                                   0x20000004   Data          28  usbd_usr.o(.data)
    USR_desc                                 0x20000020   Data          28  usbd_desc.o(.data)
    USBD_LangIDDesc                          0x2000003c   Data           4  usbd_desc.o(.data)
    USBD_DeviceDesc                          0x20000040   Data          18  usbd_desc.o(.data)
    USBD_DeviceQualifierDesc                 0x20000052   Data          10  usbd_desc.o(.data)
    USBD_DCD_INT_cb                          0x2000005c   Data          44  usbd_core.o(.data)
    USBD_DCD_INT_fops                        0x20000088   Data           4  usbd_core.o(.data)
    SET_TEST_MODE                            0x2000008c   Data           4  usbd_core.o(.data)
    USBD_ep_status                           0x20000094   Data           4  usbd_req.o(.data)
    USBD_default_cfg                         0x20000098   Data           4  usbd_req.o(.data)
    USBD_cfg_status                          0x2000009c   Data           4  usbd_req.o(.data)
    USB_StatusDataSended                     0x200000a0   Data           1  usbd_cdc_core.o(.data)
    USB_ReceivedCount                        0x200000a4   Data           4  usbd_cdc_core.o(.data)
    CmdBuff                                  0x200000b4   Data           8  usbd_cdc_core.o(.data)
    usbd_cdc_CfgDesc                         0x200000bc   Data          32  usbd_cdc_core.o(.data)
    usbd_cdc_OtherCfgDesc                    0x200000dc   Data          32  usbd_cdc_core.o(.data)
    USBD_CDC_cb                              0x200000fc   Data          48  usbd_cdc_core.o(.data)
    usb_timeout                              0x2000013c   Data           4  main.o(.data)
    time                                     0x20000140   Data           4  stm32fxxx_it.o(.data)
    USB2CAN_STATE                            0x20000144   Data           1  can.o(.data)
    coder_init_count                         0x20000148   Data           1  coder.o(.data)
    coder_setp                               0x2000014c   Data           4  coder.o(.data)
    status                                   0x20000150   Data           1  microstepdriver.o(.data)
    step_begain                              0x20000152   Data           2  microstepdriver.o(.data)
    stepPosition                             0x20000154   Data           4  microstepdriver.o(.data)
    rct_t                                    0x20000164   Data           7  usart_screen.o(.data)
    motor_tims                               0x20000170   Data           1  mission.o(.data)
    usb_waittime                             0x20000174   Data           4  mission.o(.data)
    version                                  0x20000178   Data           7  mission.o(.data)
    power_off_state                          0x2000017f   Data           1  cooler.o(.data)
    cooler_received_command                  0x20000180   Data           1  cooler.o(.data)
    table_B3470                              0x20000182   Data         142  b3470.o(.data)
    lm75_status                              0x20000210   Data           1  temp_control.o(.data)
    gobal_temp_flag                          0x20000211   Data           1  temp_control.o(.data)
    gobal_temp                               0x20000212   Data           2  temp_control.o(.data)
    _iwdg                                    0x20000214   Data          20  wwdg.o(.data)
    SystemCoreClock                          0x20000228   Data           4  system_stm32f4xx.o(.data)
    AHBPrescTable                            0x2000022c   Data          16  system_stm32f4xx.o(.data)
    TM_USART1                                0x2000026c   Data          16  tm_stm32f4_usart.o(.data)
    TM_USART2                                0x2000027c   Data          16  tm_stm32f4_usart.o(.data)
    TM_USART3                                0x2000028c   Data          16  tm_stm32f4_usart.o(.data)
    TM_UART4                                 0x2000029c   Data          16  tm_stm32f4_usart.o(.data)
    TM_UART5                                 0x200002ac   Data          16  tm_stm32f4_usart.o(.data)
    TM_USART6                                0x200002bc   Data          16  tm_stm32f4_usart.o(.data)
    USBD_StrDesc                             0x200002e9   Data         255  usbd_req.o(.bss)
    USB_Rx_Buffer                            0x200003e8   Data        2048  usbd_cdc_core.o(.bss)
    USB_OTG_dev                              0x20000be8   Data        1524  main.o(.bss)
    mission_state                            0x200011dc   Data         255  can.o(.bss)
    srd                                      0x200012dc   Data          36  microstepdriver.o(.bss)
    motor                                    0x20001300   Data          40  msd_test.o(.bss)
    odc                                      0x20001328   Data         216  one_dimension_code.o(.bss)
    sut                                      0x20001400   Data          12  usart_screen.o(.bss)
    screen_tx_buffer                         0x2000140c   Data          20  usart_screen.o(.bss)
    screen_rx_buffer                         0x20001420   Data          20  usart_screen.o(.bss)
    fmt                                      0x20001464   Data          52  stmflash.o(.bss)
    buzzer                                   0x20001498   Data          44  buzzer.o(.bss)
    lmt                                      0x200014c4   Data          20  notification.o(.bss)
    LM75_tx_buffer                           0x200014d8   Data          20  temp_control.o(.bss)
    LM75_rx_buffer                           0x200014ec   Data          20  temp_control.o(.bss)
    LM75t                                    0x20001500   Data          20  temp_control.o(.bss)
    lm35_t                                   0x20001514   Data          72  temp_control.o(.bss)
    TM_USART1_Buffer                         0x200015b0   Data          32  tm_stm32f4_usart.o(.bss)
    TM_USART2_Buffer                         0x200015d0   Data          32  tm_stm32f4_usart.o(.bss)
    TM_USART3_Buffer                         0x200015f0   Data          32  tm_stm32f4_usart.o(.bss)
    TM_UART4_Buffer                          0x20001610   Data          32  tm_stm32f4_usart.o(.bss)
    TM_UART5_Buffer                          0x20001630   Data          32  tm_stm32f4_usart.o(.bss)
    TM_USART6_Buffer                         0x20001650   Data          32  tm_stm32f4_usart.o(.bss)
    __initial_sp                             0x20001a70   Data           0  startup_stm32f40_41xxx.o(STACK)



==============================================================================

Memory Map of the image

  Image Entry point : 0x08000189

  Load Region LR_IROM1 (Base: 0x08000000, Size: 0x000071d0, Max: 0x00100000, ABSOLUTE, COMPRESSED[0x000070a4])

    Execution Region ER_IROM1 (Base: 0x08000000, Size: 0x00006f00, Max: 0x00100000, ABSOLUTE)

    Base Addr    Size         Type   Attr      Idx    E Section Name        Object

    0x08000000   0x00000188   Data   RO         4794    RESET               startup_stm32f40_41xxx.o
    0x08000188   0x00000000   Code   RO         5403  * .ARM.Collect$$$$00000000  mc_w.l(entry.o)
    0x08000188   0x00000004   Code   RO         5685    .ARM.Collect$$$$00000001  mc_w.l(entry2.o)
    0x0800018c   0x00000004   Code   RO         5688    .ARM.Collect$$$$00000004  mc_w.l(entry5.o)
    0x08000190   0x00000000   Code   RO         5690    .ARM.Collect$$$$00000008  mc_w.l(entry7b.o)
    0x08000190   0x00000000   Code   RO         5692    .ARM.Collect$$$$0000000A  mc_w.l(entry8b.o)
    0x08000190   0x00000008   Code   RO         5693    .ARM.Collect$$$$0000000B  mc_w.l(entry9a.o)
    0x08000198   0x00000000   Code   RO         5695    .ARM.Collect$$$$0000000D  mc_w.l(entry10a.o)
    0x08000198   0x00000000   Code   RO         5697    .ARM.Collect$$$$0000000F  mc_w.l(entry11a.o)
    0x08000198   0x00000004   Code   RO         5686    .ARM.Collect$$$$00002712  mc_w.l(entry2.o)
    0x0800019c   0x00000024   Code   RO         4795    .text               startup_stm32f40_41xxx.o
    0x080001c0   0x00000024   Code   RO         5406    .text               mc_w.l(memcpya.o)
    0x080001e4   0x0000014e   Code   RO         5673    .text               mf_w.l(dadd.o)
    0x08000332   0x000000e4   Code   RO         5675    .text               mf_w.l(dmul.o)
    0x08000416   0x000000de   Code   RO         5677    .text               mf_w.l(ddiv.o)
    0x080004f4   0x0000001a   Code   RO         5679    .text               mf_w.l(dfltui.o)
    0x0800050e   0x00000032   Code   RO         5681    .text               mf_w.l(dfixui.o)
    0x08000540   0x00000038   Code   RO         5683    .text               mf_w.l(d2f.o)
    0x08000578   0x00000062   Code   RO         5702    .text               mc_w.l(uldiv.o)
    0x080005da   0x0000001e   Code   RO         5704    .text               mc_w.l(llshl.o)
    0x080005f8   0x00000020   Code   RO         5706    .text               mc_w.l(llushr.o)
    0x08000618   0x00000024   Code   RO         5708    .text               mc_w.l(llsshr.o)
    0x0800063c   0x00000000   Code   RO         5717    .text               mc_w.l(iusefp.o)
    0x0800063c   0x0000006e   Code   RO         5718    .text               mf_w.l(fepilogue.o)
    0x080006aa   0x000000ba   Code   RO         5720    .text               mf_w.l(depilogue.o)
    0x08000764   0x000000a2   Code   RO         5722    .text               mf_w.l(dsqrt.o)
    0x08000806   0x00000002   PAD
    0x08000808   0x00000024   Code   RO         5730    .text               mc_w.l(init.o)
    0x0800082c   0x00000056   Code   RO         5740    .text               mc_w.l(__dczerorl2.o)
    0x08000882   0x00000014   Code   RO         1176    i.ADC_Cmd           stm32f4xx_adc.o
    0x08000896   0x00000002   PAD
    0x08000898   0x0000002c   Code   RO         1177    i.ADC_CommonInit    stm32f4xx_adc.o
    0x080008c4   0x00000006   Code   RO         1188    i.ADC_GetConversionValue  stm32f4xx_adc.o
    0x080008ca   0x0000000e   Code   RO         1189    i.ADC_GetFlagStatus  stm32f4xx_adc.o
    0x080008d8   0x0000004c   Code   RO         1196    i.ADC_Init          stm32f4xx_adc.o
    0x08000924   0x00000074   Code   RO         1201    i.ADC_RegularChannelConfig  stm32f4xx_adc.o
    0x08000998   0x0000000a   Code   RO         1203    i.ADC_SoftwareStartConv  stm32f4xx_adc.o
    0x080009a2   0x00000002   PAD
    0x080009a4   0x00000040   Code   RO         4299    i.BUZZER_Init       buzzer.o
    0x080009e4   0x000000c0   Code   RO         4300    i.BUZZER_mission_polling  buzzer.o
    0x08000aa4   0x00000002   Code   RO         3577    i.BusFault_Handler  stm32fxxx_it.o
    0x08000aa6   0x00000002   PAD
    0x08000aa8   0x000000e4   Code   RO         3768    i.CAN1_Mode_Init    can.o
    0x08000b8c   0x00000040   Code   RO         3769    i.CAN1_RX0_IRQHandler  can.o
    0x08000bcc   0x000000cc   Code   RO         1422    i.CAN_FilterInit    stm32f4xx_can.o
    0x08000c98   0x00000010   Code   RO         1428    i.CAN_ITConfig      stm32f4xx_can.o
    0x08000ca8   0x000000e8   Code   RO         1429    i.CAN_Init          stm32f4xx_can.o
    0x08000d90   0x0000008e   Code   RO         1432    i.CAN_Receive       stm32f4xx_can.o
    0x08000e1e   0x000000a4   Code   RO         1437    i.CAN_Transmit      stm32f4xx_can.o
    0x08000ec2   0x0000002c   Code   RO          427    i.DCD_EP_Close      usb_dcd.o
    0x08000eee   0x00000038   Code   RO          428    i.DCD_EP_ClrStall   usb_dcd.o
    0x08000f26   0x00000018   Code   RO          429    i.DCD_EP_Flush      usb_dcd.o
    0x08000f3e   0x0000003c   Code   RO          430    i.DCD_EP_Open       usb_dcd.o
    0x08000f7a   0x00000044   Code   RO          431    i.DCD_EP_PrepareRx  usb_dcd.o
    0x08000fbe   0x00000010   Code   RO          432    i.DCD_EP_SetAddress  usb_dcd.o
    0x08000fce   0x00000038   Code   RO          433    i.DCD_EP_Stall      usb_dcd.o
    0x08001006   0x0000003e   Code   RO          434    i.DCD_EP_Tx         usb_dcd.o
    0x08001044   0x000000cc   Code   RO          352    i.DCD_HandleInEP_ISR  usb_dcd_int.o
    0x08001110   0x000000ac   Code   RO          353    i.DCD_HandleOutEP_ISR  usb_dcd_int.o
    0x080011bc   0x0000007c   Code   RO          354    i.DCD_HandleRxStatusQueueLevel_ISR  usb_dcd_int.o
    0x08001238   0x00000070   Code   RO          355    i.DCD_HandleUSBSuspend_ISR  usb_dcd_int.o
    0x080012a8   0x00000090   Code   RO          356    i.DCD_HandleUsbReset_ISR  usb_dcd_int.o
    0x08001338   0x00000092   Code   RO          436    i.DCD_Init          usb_dcd.o
    0x080013ca   0x00000072   Code   RO          357    i.DCD_WriteEmptyTxFifo  usb_dcd_int.o
    0x0800143c   0x0000000c   Code   RO         4802    i.DMA1_Stream0_IRQHandler  tm_stm32f4_dma.o
    0x08001448   0x0000000c   Code   RO         4803    i.DMA1_Stream1_IRQHandler  tm_stm32f4_dma.o
    0x08001454   0x0000000c   Code   RO         4804    i.DMA1_Stream2_IRQHandler  tm_stm32f4_dma.o
    0x08001460   0x0000000c   Code   RO         4805    i.DMA1_Stream3_IRQHandler  tm_stm32f4_dma.o
    0x0800146c   0x0000000c   Code   RO         4806    i.DMA1_Stream4_IRQHandler  tm_stm32f4_dma.o
    0x08001478   0x0000000c   Code   RO         4807    i.DMA1_Stream5_IRQHandler  tm_stm32f4_dma.o
    0x08001484   0x0000000c   Code   RO         4808    i.DMA1_Stream6_IRQHandler  tm_stm32f4_dma.o
    0x08001490   0x0000000c   Code   RO         4809    i.DMA1_Stream7_IRQHandler  tm_stm32f4_dma.o
    0x0800149c   0x0000000c   Code   RO         4810    i.DMA2_Stream1_IRQHandler  tm_stm32f4_dma.o
    0x080014a8   0x0000000c   Code   RO         4811    i.DMA2_Stream2_IRQHandler  tm_stm32f4_dma.o
    0x080014b4   0x0000000c   Code   RO         4812    i.DMA2_Stream3_IRQHandler  tm_stm32f4_dma.o
    0x080014c0   0x0000000c   Code   RO         4813    i.DMA2_Stream4_IRQHandler  tm_stm32f4_dma.o
    0x080014cc   0x0000000c   Code   RO         4814    i.DMA2_Stream5_IRQHandler  tm_stm32f4_dma.o
    0x080014d8   0x0000000c   Code   RO         4815    i.DMA2_Stream6_IRQHandler  tm_stm32f4_dma.o
    0x080014e4   0x0000000c   Code   RO         4816    i.DMA2_Stream7_IRQHandler  tm_stm32f4_dma.o
    0x080014f0   0x00000054   Code   RO         1597    i.DMA_Init          stm32f4xx_dma.o
    0x08001544   0x00000002   Code   RO         3578    i.DebugMon_Handler  stm32fxxx_it.o
    0x08001546   0x00000002   PAD
    0x08001548   0x0000001c   Code   RO         3886    i.EXTI0_IRQHandler  coder.o
    0x08001564   0x0000004a   Code   RO         3887    i.EXTIX_Init        coder.o
    0x080015ae   0x00000002   PAD
    0x080015b0   0x0000000c   Code   RO         1716    i.EXTI_ClearITPendingBit  stm32f4xx_exti.o
    0x080015bc   0x00000070   Code   RO         1721    i.EXTI_Init         stm32f4xx_exti.o
    0x0800162c   0x0000006c   Code   RO         1787    i.FLASH_EraseSector  stm32f4xx_flash.o
    0x08001698   0x0000003c   Code   RO         1789    i.FLASH_GetStatus   stm32f4xx_flash.o
    0x080016d4   0x00000010   Code   RO         1793    i.FLASH_Lock        stm32f4xx_flash.o
    0x080016e4   0x0000003c   Code   RO         1817    i.FLASH_ProgramWord  stm32f4xx_flash.o
    0x08001720   0x00000024   Code   RO         1819    i.FLASH_Unlock      stm32f4xx_flash.o
    0x08001744   0x0000001e   Code   RO         1820    i.FLASH_WaitForLastOperation  stm32f4xx_flash.o
    0x08001762   0x00000078   Code   RO         2040    i.GPIO_Init         stm32f4xx_gpio.o
    0x080017da   0x00000020   Code   RO         2041    i.GPIO_PinAFConfig  stm32f4xx_gpio.o
    0x080017fa   0x00000004   Code   RO         2047    i.GPIO_ResetBits    stm32f4xx_gpio.o
    0x080017fe   0x00000004   Code   RO         2048    i.GPIO_SetBits      stm32f4xx_gpio.o
    0x08001802   0x00000002   PAD
    0x08001804   0x00000030   Code   RO         4532    i.Get_Adc           adc.o
    0x08001834   0x0000009a   Code   RO         4533    i.Get_Adc_Average   adc.o
    0x080018ce   0x00000002   Code   RO         3579    i.HardFault_Handler  stm32fxxx_it.o
    0x080018d0   0x0000000c   Code   RO         4342    i.LED1_OFF          notification.o
    0x080018dc   0x0000000c   Code   RO         4343    i.LED1_ON           notification.o
    0x080018e8   0x00000040   Code   RO         4344    i.LED1_init         notification.o
    0x08001928   0x0000000c   Code   RO         4345    i.LED_OFF           notification.o
    0x08001934   0x0000000c   Code   RO         4346    i.LED_ON            notification.o
    0x08001940   0x0000003c   Code   RO         4348    i.LED_init          notification.o
    0x0800197c   0x000000a0   Code   RO         4630    i.LM75_parpare_buffer  temp_control.o
    0x08001a1c   0x0000003c   Code   RO         4028    i.MM_position       msd_test.o
    0x08001a58   0x000000a0   Code   RO         3941    i.MSD_GPIO_Config   microstepdriver.o
    0x08001af8   0x00000028   Code   RO         3942    i.MSD_Init          microstepdriver.o
    0x08001b20   0x0000015c   Code   RO         3943    i.MSD_Move          microstepdriver.o
    0x08001c7c   0x00000018   Code   RO         3944    i.MSD_StepCounter   microstepdriver.o
    0x08001c94   0x00000002   Code   RO         3580    i.MemManage_Handler  stm32fxxx_it.o
    0x08001c96   0x00000002   Code   RO         3581    i.NMI_Handler       stm32fxxx_it.o
    0x08001c98   0x00000064   Code   RO         1122    i.NVIC_Init         misc.o
    0x08001cfc   0x00000014   Code   RO         1123    i.NVIC_PriorityGroupConfig  misc.o
    0x08001d10   0x0000000c   Code   RO         3582    i.OTG_HS_EP1_IN_IRQHandler  stm32fxxx_it.o
    0x08001d1c   0x0000000c   Code   RO         3583    i.OTG_HS_EP1_OUT_IRQHandler  stm32fxxx_it.o
    0x08001d28   0x0000000c   Code   RO         3584    i.OTG_HS_IRQHandler  stm32fxxx_it.o
    0x08001d34   0x00000030   Code   RO         3585    i.OTG_HS_WKUP_IRQHandler  stm32fxxx_it.o
    0x08001d64   0x00000002   Code   RO         3586    i.PendSV_Handler    stm32fxxx_it.o
    0x08001d66   0x00000002   PAD
    0x08001d68   0x00000018   Code   RO         2309    i.RCC_AHB1PeriphClockCmd  stm32f4xx_rcc.o
    0x08001d80   0x00000018   Code   RO         2318    i.RCC_APB1PeriphClockCmd  stm32f4xx_rcc.o
    0x08001d98   0x00000018   Code   RO         2320    i.RCC_APB1PeriphResetCmd  stm32f4xx_rcc.o
    0x08001db0   0x00000018   Code   RO         2321    i.RCC_APB2PeriphClockCmd  stm32f4xx_rcc.o
    0x08001dc8   0x00000018   Code   RO         2323    i.RCC_APB2PeriphResetCmd  stm32f4xx_rcc.o
    0x08001de0   0x00000090   Code   RO         2330    i.RCC_GetClocksFreq  stm32f4xx_rcc.o
    0x08001e70   0x00000034   Code   RO         2331    i.RCC_GetFlagStatus  stm32f4xx_rcc.o
    0x08001ea4   0x000000a0   Code   RO         4215    i.STMFLASH_GetFlashSector  stmflash.o
    0x08001f44   0x00000014   Code   RO         4216    i.STMFLASH_Read     stmflash.o
    0x08001f58   0x00000074   Code   RO         4218    i.STMFLASH_Write    stmflash.o
    0x08001fcc   0x00000002   Code   RO         3587    i.SVC_Handler       stm32fxxx_it.o
    0x08001fce   0x00000002   PAD
    0x08001fd0   0x00000030   Code   RO         2650    i.SYSCFG_EXTILineConfig  stm32f4xx_syscfg.o
    0x08002000   0x000000b4   Code   RO         4754    i.SetSysClock       system_stm32f4xx.o
    0x080020b4   0x00000010   Code   RO         3588    i.SysTick_Handler   stm32fxxx_it.o
    0x080020c4   0x0000005c   Code   RO         4756    i.SystemInit        system_stm32f4xx.o
    0x08002120   0x0000002e   Code   RO         2707    i.TI1_Config        stm32f4xx_tim.o
    0x0800214e   0x00000036   Code   RO         2708    i.TI2_Config        stm32f4xx_tim.o
    0x08002184   0x000001b8   Code   RO         3945    i.TIM2_IRQHandler   microstepdriver.o
    0x0800233c   0x00000014   Code   RO         2709    i.TIM_ARRPreloadConfig  stm32f4xx_tim.o
    0x08002350   0x00000006   Code   RO         2715    i.TIM_ClearFlag     stm32f4xx_tim.o
    0x08002356   0x00000006   Code   RO         2716    i.TIM_ClearITPendingBit  stm32f4xx_tim.o
    0x0800235c   0x00000014   Code   RO         2721    i.TIM_Cmd           stm32f4xx_tim.o
    0x08002370   0x00000032   Code   RO         2730    i.TIM_EncoderInterfaceConfig  stm32f4xx_tim.o
    0x080023a2   0x00000018   Code   RO         2742    i.TIM_GetITStatus   stm32f4xx_tim.o
    0x080023ba   0x000000ac   Code   RO         2744    i.TIM_ICInit        stm32f4xx_tim.o
    0x08002466   0x00000010   Code   RO         2745    i.TIM_ICStructInit  stm32f4xx_tim.o
    0x08002476   0x00000010   Code   RO         2746    i.TIM_ITConfig      stm32f4xx_tim.o
    0x08002486   0x0000008e   Code   RO         3946    i.TIM_Mode_Config   microstepdriver.o
    0x08002514   0x00000080   Code   RO         2755    i.TIM_OC2Init       stm32f4xx_tim.o
    0x08002594   0x00000014   Code   RO         2758    i.TIM_OC2PreloadConfig  stm32f4xx_tim.o
    0x080025a8   0x00000004   Code   RO         2781    i.TIM_SetAutoreload  stm32f4xx_tim.o
    0x080025ac   0x00000004   Code   RO         2784    i.TIM_SetCompare2   stm32f4xx_tim.o
    0x080025b0   0x00000004   Code   RO         2787    i.TIM_SetCounter    stm32f4xx_tim.o
    0x080025b4   0x00000010   Code   RO         2788    i.TIM_SetIC1Prescaler  stm32f4xx_tim.o
    0x080025c4   0x00000018   Code   RO         2789    i.TIM_SetIC2Prescaler  stm32f4xx_tim.o
    0x080025dc   0x00000010   Code   RO         2790    i.TIM_SetIC3Prescaler  stm32f4xx_tim.o
    0x080025ec   0x00000018   Code   RO         2791    i.TIM_SetIC4Prescaler  stm32f4xx_tim.o
    0x08002604   0x0000007c   Code   RO         2793    i.TIM_TimeBaseInit  stm32f4xx_tim.o
    0x08002680   0x00000012   Code   RO         2794    i.TIM_TimeBaseStructInit  stm32f4xx_tim.o
    0x08002692   0x00000014   Code   RO         2796    i.TIM_UpdateRequestConfig  stm32f4xx_tim.o
    0x080026a6   0x00000002   PAD
    0x080026a8   0x00000044   Code   RO         4817    i.TM_DMA_ClearFlag  tm_stm32f4_dma.o
    0x080026ec   0x00000006   Code   RO         4818    i.TM_DMA_ClearFlags  tm_stm32f4_dma.o
    0x080026f2   0x00000002   Code   RO         4819    i.TM_DMA_DirectModeErrorHandler  tm_stm32f4_dma.o
    0x080026f4   0x00000002   Code   RO         4822    i.TM_DMA_FIFOErrorHandler  tm_stm32f4_dma.o
    0x080026f6   0x00000002   PAD
    0x080026f8   0x00000044   Code   RO         4823    i.TM_DMA_GetFlags   tm_stm32f4_dma.o
    0x0800273c   0x00000002   Code   RO         4824    i.TM_DMA_HalfTransferCompleteHandler  tm_stm32f4_dma.o
    0x0800273e   0x00000066   Code   RO         4825    i.TM_DMA_INT_ProcessInterrupt  tm_stm32f4_dma.o
    0x080027a4   0x00000002   Code   RO         4826    i.TM_DMA_TransferCompleteHandler  tm_stm32f4_dma.o
    0x080027a6   0x00000002   Code   RO         4827    i.TM_DMA_TransferErrorHandler  tm_stm32f4_dma.o
    0x080027a8   0x00000010   Code   RO         4984    i.TM_GPIO_GetPortSource  tm_stm32f4_gpio.o
    0x080027b8   0x00000018   Code   RO         4987    i.TM_GPIO_INT_EnableClock  tm_stm32f4_gpio.o
    0x080027d0   0x00000088   Code   RO         4988    i.TM_GPIO_INT_Init  tm_stm32f4_gpio.o
    0x08002858   0x00000026   Code   RO         4989    i.TM_GPIO_Init      tm_stm32f4_gpio.o
    0x0800287e   0x0000005c   Code   RO         4990    i.TM_GPIO_InitAlternate  tm_stm32f4_gpio.o
    0x080028da   0x00000002   PAD
    0x080028dc   0x00000048   Code   RO         5176    i.TM_UART4_InitPins  tm_stm32f4_usart.o
    0x08002924   0x00000044   Code   RO         5177    i.TM_UART5_InitPins  tm_stm32f4_usart.o
    0x08002968   0x00000048   Code   RO         5178    i.TM_USART1_InitPins  tm_stm32f4_usart.o
    0x080029b0   0x00000048   Code   RO         5179    i.TM_USART2_InitPins  tm_stm32f4_usart.o
    0x080029f8   0x0000005c   Code   RO         5180    i.TM_USART3_InitPins  tm_stm32f4_usart.o
    0x08002a54   0x00000048   Code   RO         5181    i.TM_USART6_InitPins  tm_stm32f4_usart.o
    0x08002a9c   0x0000005c   Code   RO         5100    i.TM_USART_DMA_INT_GetSettings  tm_stm32f4_usart_dma.o
    0x08002af8   0x00000054   Code   RO         5101    i.TM_USART_DMA_Init  tm_stm32f4_usart_dma.o
    0x08002b4c   0x00000054   Code   RO         5104    i.TM_USART_DMA_Send  tm_stm32f4_usart_dma.o
    0x08002ba0   0x00000032   Code   RO         5185    i.TM_USART_FindCharacter  tm_stm32f4_usart.o
    0x08002bd2   0x00000034   Code   RO         5186    i.TM_USART_Getc     tm_stm32f4_usart.o
    0x08002c06   0x00000054   Code   RO         5187    i.TM_USART_Gets     tm_stm32f4_usart.o
    0x08002c5a   0x00000002   PAD
    0x08002c5c   0x0000004c   Code   RO         5188    i.TM_USART_INT_GetSubPriority  tm_stm32f4_usart.o
    0x08002ca8   0x0000005c   Code   RO         5189    i.TM_USART_INT_GetUsart  tm_stm32f4_usart.o
    0x08002d04   0x00000144   Code   RO         5190    i.TM_USART_INT_Init  tm_stm32f4_usart.o
    0x08002e48   0x00000026   Code   RO         5191    i.TM_USART_INT_InsertToBuffer  tm_stm32f4_usart.o
    0x08002e6e   0x00000002   PAD
    0x08002e70   0x000000b8   Code   RO         5192    i.TM_USART_Init     tm_stm32f4_usart.o
    0x08002f28   0x00000002   Code   RO         5193    i.TM_USART_InitCustomPinsCallback  tm_stm32f4_usart.o
    0x08002f2a   0x00000002   PAD
    0x08002f2c   0x000000b8   Code   RO         5370    i.TM_WATCHDOG_Init  tm_stm32f4_watchdog.o
    0x08002fe4   0x00000020   Code   RO         5198    i.UART4_IRQHandler  tm_stm32f4_usart.o
    0x08003004   0x0000001c   Code   RO         5199    i.UART5_IRQHandler  tm_stm32f4_usart.o
    0x08003020   0x0000001c   Code   RO         5200    i.USART1_IRQHandler  tm_stm32f4_usart.o
    0x0800303c   0x00000020   Code   RO         5201    i.USART2_IRQHandler  tm_stm32f4_usart.o
    0x0800305c   0x00000020   Code   RO         5202    i.USART3_IRQHandler  tm_stm32f4_usart.o
    0x0800307c   0x00000020   Code   RO         5203    i.USART6_IRQHandler  tm_stm32f4_usart.o
    0x0800309c   0x000000ac   Code   RO         3264    i.USART_DeInit      stm32f4xx_usart.o
    0x08003148   0x000000ac   Code   RO         3269    i.USART_Init        stm32f4xx_usart.o
    0x080031f4   0x0000000e   Code   RO          735    i.USBD_ClrCfg       usbd_core.o
    0x08003202   0x00000012   Code   RO          830    i.USBD_CtlContinueRx  usbd_ioreq.o
    0x08003214   0x00000012   Code   RO          831    i.USBD_CtlContinueSendData  usbd_ioreq.o
    0x08003226   0x0000001c   Code   RO          893    i.USBD_CtlError     usbd_req.o
    0x08003242   0x00000020   Code   RO          832    i.USBD_CtlPrepareRx  usbd_ioreq.o
    0x08003262   0x00000022   Code   RO          833    i.USBD_CtlReceiveStatus  usbd_ioreq.o
    0x08003284   0x00000020   Code   RO          834    i.USBD_CtlSendData  usbd_ioreq.o
    0x080032a4   0x00000022   Code   RO          835    i.USBD_CtlSendStatus  usbd_ioreq.o
    0x080032c6   0x00000002   PAD
    0x080032c8   0x000000b0   Code   RO          736    i.USBD_DataInStage  usbd_core.o
    0x08003378   0x00000074   Code   RO          737    i.USBD_DataOutStage  usbd_core.o
    0x080033ec   0x00000124   Code   RO          894    i.USBD_GetDescriptor  usbd_req.o
    0x08003510   0x00000010   Code   RO          836    i.USBD_GetRxCount   usbd_ioreq.o
    0x08003520   0x00000046   Code   RO          895    i.USBD_GetString    usbd_req.o
    0x08003566   0x00000034   Code   RO          739    i.USBD_Init         usbd_core.o
    0x0800359a   0x0000000e   Code   RO          740    i.USBD_IsoINIncomplete  usbd_core.o
    0x080035a8   0x0000000e   Code   RO          741    i.USBD_IsoOUTIncomplete  usbd_core.o
    0x080035b6   0x00000002   PAD
    0x080035b8   0x00000078   Code   RO          358    i.USBD_OTG_EP1IN_ISR_Handler  usb_dcd_int.o
    0x08003630   0x00000050   Code   RO          359    i.USBD_OTG_EP1OUT_ISR_Handler  usb_dcd_int.o
    0x08003680   0x0000014c   Code   RO          360    i.USBD_OTG_ISR_Handler  usb_dcd_int.o
    0x080037cc   0x00000044   Code   RO          896    i.USBD_ParseSetupRequest  usbd_req.o
    0x08003810   0x0000002e   Code   RO          742    i.USBD_Reset        usbd_core.o
    0x0800383e   0x00000016   Code   RO          743    i.USBD_Resume       usbd_core.o
    0x08003854   0x00000010   Code   RO          744    i.USBD_SOF          usbd_core.o
    0x08003864   0x0000001a   Code   RO          745    i.USBD_SetCfg       usbd_core.o
    0x0800387e   0x00000002   PAD
    0x08003880   0x00000074   Code   RO          897    i.USBD_SetConfig    usbd_req.o
    0x080038f4   0x0000007c   Code   RO          898    i.USBD_SetFeature   usbd_req.o
    0x08003970   0x00000048   Code   RO          746    i.USBD_SetupStage   usbd_core.o
    0x080039b8   0x000000f0   Code   RO          899    i.USBD_StdDevReq    usbd_req.o
    0x08003aa8   0x000000d4   Code   RO          900    i.USBD_StdEPReq     usbd_req.o
    0x08003b7c   0x00000036   Code   RO          901    i.USBD_StdItfReq    usbd_req.o
    0x08003bb2   0x0000001c   Code   RO          747    i.USBD_Suspend      usbd_core.o
    0x08003bce   0x00000002   PAD
    0x08003bd0   0x00000024   Code   RO          659    i.USBD_USR_ConfigStrDescriptor  usbd_desc.o
    0x08003bf4   0x0000001c   Code   RO          566    i.USBD_USR_DeviceConfigured  usbd_usr.o
    0x08003c10   0x00000010   Code   RO          567    i.USBD_USR_DeviceConnected  usbd_usr.o
    0x08003c20   0x0000000c   Code   RO          660    i.USBD_USR_DeviceDescriptor  usbd_desc.o
    0x08003c2c   0x00000014   Code   RO          568    i.USBD_USR_DeviceDisconnected  usbd_usr.o
    0x08003c40   0x00000002   Code   RO          569    i.USBD_USR_DeviceReset  usbd_usr.o
    0x08003c42   0x00000002   PAD
    0x08003c44   0x00000018   Code   RO          570    i.USBD_USR_DeviceResumed  usbd_usr.o
    0x08003c5c   0x00000014   Code   RO          571    i.USBD_USR_DeviceSuspended  usbd_usr.o
    0x08003c70   0x00000002   Code   RO          572    i.USBD_USR_Init     usbd_usr.o
    0x08003c72   0x00000002   PAD
    0x08003c74   0x00000028   Code   RO          661    i.USBD_USR_InterfaceStrDescriptor  usbd_desc.o
    0x08003c9c   0x0000000c   Code   RO          662    i.USBD_USR_LangIDStrDescriptor  usbd_desc.o
    0x08003ca8   0x00000020   Code   RO          663    i.USBD_USR_ManufacturerStrDescriptor  usbd_desc.o
    0x08003cc8   0x00000044   Code   RO          664    i.USBD_USR_ProductStrDescriptor  usbd_desc.o
    0x08003d0c   0x00000048   Code   RO          665    i.USBD_USR_SerialStrDescriptor  usbd_desc.o
    0x08003d54   0x0000000c   Code   RO          970    i.USBD_cdc_GetCfgDesc  usbd_cdc_core.o
    0x08003d60   0x0000000c   Code   RO          971    i.USBD_cdc_GetOtherCfgDesc  usbd_cdc_core.o
    0x08003d6c   0x00000066   Code   RO          521    i.USB_OTG_BSP_EnableInterrupt  usb_bsp.o
    0x08003dd2   0x00000002   PAD
    0x08003dd4   0x00000140   Code   RO          522    i.USB_OTG_BSP_Init  usb_bsp.o
    0x08003f14   0x0000000a   Code   RO          523    i.USB_OTG_BSP_mDelay  usb_bsp.o
    0x08003f1e   0x00000016   Code   RO          524    i.USB_OTG_BSP_uDelay  usb_bsp.o
    0x08003f34   0x00000080   Code   RO            5    i.USB_OTG_CoreInit  usb_core.o
    0x08003fb4   0x00000156   Code   RO            6    i.USB_OTG_CoreInitDev  usb_core.o
    0x0800410a   0x00000002   PAD
    0x0800410c   0x00000058   Code   RO            7    i.USB_OTG_CoreReset  usb_core.o
    0x08004164   0x00000010   Code   RO            8    i.USB_OTG_DisableGlobalInt  usb_core.o
    0x08004174   0x0000003a   Code   RO            9    i.USB_OTG_EP0Activate  usb_core.o
    0x080041ae   0x000000b8   Code   RO           10    i.USB_OTG_EP0StartXfer  usb_core.o
    0x08004266   0x00000002   PAD
    0x08004268   0x00000024   Code   RO           11    i.USB_OTG_EP0_OutStart  usb_core.o
    0x0800428c   0x00000068   Code   RO           12    i.USB_OTG_EPActivate  usb_core.o
    0x080042f4   0x00000032   Code   RO           13    i.USB_OTG_EPClearStall  usb_core.o
    0x08004326   0x0000004e   Code   RO           14    i.USB_OTG_EPDeactivate  usb_core.o
    0x08004374   0x00000030   Code   RO           15    i.USB_OTG_EPSetStall  usb_core.o
    0x080043a4   0x0000012a   Code   RO           16    i.USB_OTG_EPStartXfer  usb_core.o
    0x080044ce   0x00000002   PAD
    0x080044d0   0x00000048   Code   RO           17    i.USB_OTG_EnableDevInt  usb_core.o
    0x08004518   0x00000010   Code   RO           18    i.USB_OTG_EnableGlobalInt  usb_core.o
    0x08004528   0x0000003c   Code   RO           19    i.USB_OTG_FlushRxFifo  usb_core.o
    0x08004564   0x00000044   Code   RO           20    i.USB_OTG_FlushTxFifo  usb_core.o
    0x080045a8   0x00000026   Code   RO           21    i.USB_OTG_GetDeviceSpeed  usb_core.o
    0x080045ce   0x0000000c   Code   RO           24    i.USB_OTG_InitDevSpeed  usb_core.o
    0x080045da   0x00000012   Code   RO           25    i.USB_OTG_IsDeviceMode  usb_core.o
    0x080045ec   0x0000000a   Code   RO           27    i.USB_OTG_ReadCoreItr  usb_core.o
    0x080045f6   0x0000000c   Code   RO           28    i.USB_OTG_ReadDevAllInEPItr  usb_core.o
    0x08004602   0x0000000c   Code   RO           29    i.USB_OTG_ReadDevAllOutEp_itr  usb_core.o
    0x0800460e   0x00000010   Code   RO           30    i.USB_OTG_ReadDevOutEP_itr  usb_core.o
    0x0800461e   0x00000020   Code   RO           32    i.USB_OTG_ReadPacket  usb_core.o
    0x0800463e   0x00000002   PAD
    0x08004640   0x000000c4   Code   RO           33    i.USB_OTG_SelectCore  usb_core.o
    0x08004704   0x0000002a   Code   RO           34    i.USB_OTG_SetCurrentMode  usb_core.o
    0x0800472e   0x0000001e   Code   RO           37    i.USB_OTG_UngateClock  usb_core.o
    0x0800474c   0x00000028   Code   RO           38    i.USB_OTG_WritePacket  usb_core.o
    0x08004774   0x00000002   Code   RO         3589    i.UsageFault_Handler  stm32fxxx_it.o
    0x08004776   0x00000002   PAD
    0x08004778   0x00000028   Code   RO         5621    i.__0sprintf$8      mc_w.l(printf8.o)
    0x080047a0   0x0000007a   Code   RO         5391    i.__hardfp_sqrt     m_wm.l(sqrt.o)
    0x0800481a   0x0000000e   Code   RO         5734    i.__scatterload_copy  mc_w.l(handlers.o)
    0x08004828   0x00000002   Code   RO         5735    i.__scatterload_null  mc_w.l(handlers.o)
    0x0800482a   0x0000000e   Code   RO         5736    i.__scatterload_zeroinit  mc_w.l(handlers.o)
    0x08004838   0x0000000c   Code   RO         5712    i.__set_errno       mc_w.l(errno.o)
    0x08004844   0x00000410   Code   RO         5626    i._printf_core      mc_w.l(printf8.o)
    0x08004c54   0x00000024   Code   RO         5627    i._printf_post_padding  mc_w.l(printf8.o)
    0x08004c78   0x0000002e   Code   RO         5628    i._printf_pre_padding  mc_w.l(printf8.o)
    0x08004ca6   0x0000000a   Code   RO         5630    i._sputc            mc_w.l(printf8.o)
    0x08004cb0   0x00000028   Code   RO         3770    i.action_failed_send  can.o
    0x08004cd8   0x00000024   Code   RO         3771    i.action_success_send  can.o
    0x08004cfc   0x00000030   Code   RO         3772    i.action_value_send  can.o
    0x08004d2c   0x00000028   Code   RO         3773    i.action_value_send_none_80  can.o
    0x08004d54   0x0000004c   Code   RO         4573    i.adc_value_conv_temperature  b3470.o
    0x08004da0   0x00000086   Code   RO         4574    i.adc_value_filter  b3470.o
    0x08004e26   0x00000002   PAD
    0x08004e28   0x00000030   Code   RO         4575    i.adc_value_get     b3470.o
    0x08004e58   0x0000010c   Code   RO         4029    i.angle             msd_test.o
    0x08004f64   0x0000001a   Code   RO         4577    i.b3470_get_temperature_offset  b3470.o
    0x08004f7e   0x00000002   PAD
    0x08004f80   0x000000a4   Code   RO         4578    i.b3470_init        b3470.o
    0x08005024   0x00000010   Code   RO         4301    i.buzzer_mission    buzzer.o
    0x08005034   0x000000d8   Code   RO         3774    i.can_mutil_frame_send  can.o
    0x0800510c   0x00000010   Code   RO         4455    i.close_inter_fan   cooler.o
    0x0800511c   0x00000030   Code   RO         3889    i.coder_gpio_init   coder.o
    0x0800514c   0x000000c0   Code   RO         3890    i.configureEncoder  coder.o
    0x0800520c   0x00000038   Code   RO         4456    i.cooler_init       cooler.o
    0x08005244   0x00000038   Code   RO         4457    i.cooler_off        cooler.o
    0x0800527c   0x00000030   Code   RO         4458    i.cooler_on         cooler.o
    0x080052ac   0x00000068   Code   RO         4459    i.cooler_pwm_mission  cooler.o
    0x08005314   0x000000a4   Code   RO         4219    i.flash_get_para    stmflash.o
    0x080053b8   0x0000001c   Code   RO         4220    i.flash_init        stmflash.o
    0x080053d4   0x0000008c   Code   RO         4221    i.flash_mission_polling  stmflash.o
    0x08005460   0x00000024   Code   RO         3947    i.get_steps         microstepdriver.o
    0x08005484   0x000000dc   Code   RO         4349    i.led_mission_polling  notification.o
    0x08005560   0x00000010   Code   RO         4350    i.led_to_notification  notification.o
    0x08005570   0x00000084   Code   RO         4631    i.lm75a_mission_polling  temp_control.o
    0x080055f4   0x00000128   Code   RO         4632    i.lm75a_temp_read_polling  temp_control.o
    0x0800571c   0x00000274   Code   RO         3516    i.main              main.o
    0x08005990   0x0000001c   Code   RO         3775    i.mission_failed_send  can.o
    0x080059ac   0x00000360   Code   RO         4417    i.mission_polling   mission.o
    0x08005d0c   0x0000001c   Code   RO         3776    i.mission_success_send  can.o
    0x08005d28   0x00000018   Code   RO         4030    i.motor_finish      msd_test.o
    0x08005d40   0x000000c4   Code   RO         4031    i.motor_inject_offset_position  msd_test.o
    0x08005e04   0x000000c4   Code   RO         4032    i.motor_maintain_polling  msd_test.o
    0x08005ec8   0x0000005c   Code   RO         4033    i.motor_move_polling  msd_test.o
    0x08005f24   0x0000012c   Code   RO         4034    i.motor_reset       msd_test.o
    0x08006050   0x000000d4   Code   RO         4035    i.motor_shocking    msd_test.o
    0x08006124   0x0000004c   Code   RO         4036    i.motor_timeout_check  msd_test.o
    0x08006170   0x00000018   Code   RO         4037    i.motor_timer_set   msd_test.o
    0x08006188   0x00000038   Code   RO         4038    i.move_to_position  msd_test.o
    0x080061c0   0x00000158   Code   RO         4222    i.offset_calc       stmflash.o
    0x08006318   0x00000058   Code   RO         3777    i.one_can_frame_send  can.o
    0x08006370   0x00000048   Code   RO         4127    i.one_dimension_code_init  one_dimension_code.o
    0x080063b8   0x000000c0   Code   RO         4128    i.one_dimension_code_mission_polling  one_dimension_code.o
    0x08006478   0x00000014   Code   RO         4129    i.one_dimension_code_read  one_dimension_code.o
    0x0800648c   0x00000010   Code   RO         4460    i.open_inter_fan    cooler.o
    0x0800649c   0x00000074   Code   RO         3778    i.parpareUSBframe   can.o
    0x08006510   0x000000ac   Code   RO         4177    i.parpare_buffer    usart_screen.o
    0x080065bc   0x00000016   Code   RO         3779    i.poniter_add       can.o
    0x080065d2   0x00000012   Code   RO         3780    i.poniter_plus_one  can.o
    0x080065e4   0x00000038   Code   RO         4461    i.power_init        cooler.o
    0x0800661c   0x0000001c   Code   RO         4462    i.power_off         cooler.o
    0x08006638   0x0000001c   Code   RO         4463    i.power_on          cooler.o
    0x08006654   0x0000003c   Code   RO         3948    i.record_position   microstepdriver.o
    0x08006690   0x00000038   Code   RO         3949    i.record_steps      microstepdriver.o
    0x080066c8   0x00000034   Code   RO         4633    i.reser_screen      temp_control.o
    0x080066fc   0x00000118   Code   RO         4039    i.step_to_move_calc  msd_test.o
    0x08006814   0x00000038   Code   RO         4224    i.stmflash_read_reverse  stmflash.o
    0x0800684c   0x000000d4   Code   RO         4178    i.su_mission_polling  usart_screen.o
    0x08006920   0x00000040   Code   RO         4693    i.system_attribute_init  wwdg.o
    0x08006960   0x00000224   Code   RO         4634    i.temp_display_mission  temp_control.o
    0x08006b84   0x00000044   Code   RO         4635    i.temp_faded        temp_control.o
    0x08006bc8   0x0000007c   Code   RO         4418    i.timer_reset       mission.o
    0x08006c44   0x00000014   Code   RO          972    i.usbd_cdc_DataIn   usbd_cdc_core.o
    0x08006c58   0x000000c4   Code   RO          973    i.usbd_cdc_DataOut  usbd_cdc_core.o
    0x08006d1c   0x00000016   Code   RO          974    i.usbd_cdc_DeInit   usbd_cdc_core.o
    0x08006d32   0x00000002   PAD
    0x08006d34   0x0000002c   Code   RO          975    i.usbd_cdc_EP0_RxReady  usbd_cdc_core.o
    0x08006d60   0x00000038   Code   RO          976    i.usbd_cdc_Init     usbd_cdc_core.o
    0x08006d98   0x00000090   Code   RO          977    i.usbd_cdc_Setup    usbd_cdc_core.o
    0x08006e28   0x00000078   Code   RO         4694    i.watch_dog_recovery  wwdg.o
    0x08006ea0   0x00000006   Code   RO         4695    i.wdg_flag_clear    wwdg.o
    0x08006ea6   0x00000006   Code   RO         4696    i.wdg_flag_set      wwdg.o
    0x08006eac   0x0000000c   Code   RO         4697    i.wdg_motor_mission_recovery  wwdg.o
    0x08006eb8   0x00000012   Code   RO         4698    i.wdg_motor_mission_set  wwdg.o
    0x08006eca   0x00000014   Data   RO         4828    .constdata          tm_stm32f4_dma.o
    0x08006ede   0x00000002   PAD
    0x08006ee0   0x00000020   Data   RO         5732    Region$$Table       anon$$obj.o


    Execution Region RW_IRAM2 (Base: 0x10000000, Size: 0x00003d14, Max: 0x00010000, ABSOLUTE, UNINIT)

    Base Addr    Size         Type   Attr      Idx    E Section Name        Object

    0x10000000   0x00000001   Zero   RW         3781    .ARM.__AT_0x10000000  can.o
    0x10000001   0x00000003   PAD
    0x10000004   0x00000001   Zero   RW         3782    .ARM.__AT_0x10000004  can.o
    0x10000005   0x00000003   PAD
    0x10000008   0x00000001   Zero   RW         3783    .ARM.__AT_0x10000008  can.o
    0x10000009   0x00000003   PAD
    0x1000000c   0x00000001   Zero   RW         3784    .ARM.__AT_0x1000000C  can.o
    0x1000000d   0x00000003   PAD
    0x10000010   0x00000002   Zero   RW         3785    .ARM.__AT_0x10000010  can.o
    0x10000012   0x00000002   PAD
    0x10000014   0x00000002   Zero   RW         3786    .ARM.__AT_0x10000014  can.o
    0x10000016   0x00000002   PAD
    0x10000018   0x00000001   Zero   RW         4419    .ARM.__AT_0x10000018  mission.o
    0x10000019   0x000001ff   PAD
    0x10000218   0x00002710   Zero   RW         3787    .ARM.__AT_0x10000218  can.o
    0x10002928   0x000013ec   Zero   RW         3788    .ARM.__AT_0x10002928  can.o


    Execution Region RW_IRAM1 (Base: 0x20000000, Size: 0x00001a70, Max: 0x00020000, ABSOLUTE, COMPRESSED[0x000001a4])

    Base Addr    Size         Type   Attr      Idx    E Section Name        Object

    0x20000000   0x00000001   Data   RW          573    .data               usbd_usr.o
    0x20000001   0x00000003   PAD
    0x20000004   0x0000001c   Data   RW          574    .data               usbd_usr.o
    0x20000020   0x0000001c   Data   RW          667    .data               usbd_desc.o
    0x2000003c   0x00000016   Data   RW          668    .data               usbd_desc.o
    0x20000052   0x0000000a   Data   RW          669    .data               usbd_desc.o
    0x2000005c   0x0000002c   Data   RW          748    .data               usbd_core.o
    0x20000088   0x00000004   Data   RW          749    .data               usbd_core.o
    0x2000008c   0x00000004   Data   RW          750    .data               usbd_core.o
    0x20000090   0x00000010   Data   RW          903    .data               usbd_req.o
    0x200000a0   0x0000005c   Data   RW          980    .data               usbd_cdc_core.o
    0x200000fc   0x00000030   Data   RW          981    .data               usbd_cdc_core.o
    0x2000012c   0x00000010   Data   RW         2362    .data               stm32f4xx_rcc.o
    0x2000013c   0x00000004   Data   RW         3519    .data               main.o
    0x20000140   0x00000004   Data   RW         3590    .data               stm32fxxx_it.o
    0x20000144   0x00000001   Data   RW         3790    .data               can.o
    0x20000145   0x00000003   PAD
    0x20000148   0x00000008   Data   RW         3891    .data               coder.o
    0x20000150   0x00000014   Data   RW         3952    .data               microstepdriver.o
    0x20000164   0x00000007   Data   RW         4180    .data               usart_screen.o
    0x2000016b   0x00000002   Data   RW         4226    .data               stmflash.o
    0x2000016d   0x00000003   PAD
    0x20000170   0x0000000f   Data   RW         4420    .data               mission.o
    0x2000017f   0x00000001   Data   RW         4464    .data               cooler.o
    0x20000180   0x00000001   Data   RW         4465    .data               cooler.o
    0x20000181   0x00000001   PAD
    0x20000182   0x0000008e   Data   RW         4579    .data               b3470.o
    0x20000210   0x00000004   Data   RW         4638    .data               temp_control.o
    0x20000214   0x00000014   Data   RW         4699    .data               wwdg.o
    0x20000228   0x00000014   Data   RW         4757    .data               system_stm32f4xx.o
    0x2000023c   0x00000030   Data   RW         5107    .data               tm_stm32f4_usart_dma.o
    0x2000026c   0x00000060   Data   RW         5210    .data               tm_stm32f4_usart.o
    0x200002cc   0x00000004   Data   RW         5713    .data               mc_w.l(errno.o)
    0x200002d0   0x00000019   Zero   RW          666    .bss                usbd_desc.o
    0x200002e9   0x000000ff   Zero   RW          902    .bss                usbd_req.o
    0x200003e8   0x00000800   Zero   RW          978    .bss                usbd_cdc_core.o
    0x20000be8   0x000005f4   Zero   RW         3517    .bss                main.o
    0x200011dc   0x000000ff   Zero   RW         3789    .bss                can.o
    0x200012db   0x00000001   PAD
    0x200012dc   0x00000024   Zero   RW         3950    .bss                microstepdriver.o
    0x20001300   0x00000028   Zero   RW         4040    .bss                msd_test.o
    0x20001328   0x000000d8   Zero   RW         4132    .bss                one_dimension_code.o
    0x20001400   0x00000034   Zero   RW         4179    .bss                usart_screen.o
    0x20001434   0x00000064   Zero   RW         4225    .bss                stmflash.o
    0x20001498   0x0000002c   Zero   RW         4302    .bss                buzzer.o
    0x200014c4   0x00000014   Zero   RW         4351    .bss                notification.o
    0x200014d8   0x00000084   Zero   RW         4636    .bss                temp_control.o
    0x2000155c   0x00000016   Zero   RW         4997    .bss                tm_stm32f4_gpio.o
    0x20001572   0x00000002   PAD
    0x20001574   0x0000003c   Zero   RW         5106    .bss                tm_stm32f4_usart_dma.o
    0x200015b0   0x00000020   Zero   RW         5204    .bss                tm_stm32f4_usart.o
    0x200015d0   0x00000020   Zero   RW         5205    .bss                tm_stm32f4_usart.o
    0x200015f0   0x00000020   Zero   RW         5206    .bss                tm_stm32f4_usart.o
    0x20001610   0x00000020   Zero   RW         5207    .bss                tm_stm32f4_usart.o
    0x20001630   0x00000020   Zero   RW         5208    .bss                tm_stm32f4_usart.o
    0x20001650   0x00000020   Zero   RW         5209    .bss                tm_stm32f4_usart.o
    0x20001670   0x00000400   Zero   RW         4792    STACK               startup_stm32f40_41xxx.o


==============================================================================

Image component sizes


      Code (inc. data)   RO Data    RW Data    ZI Data      Debug   Object Name

       202          4          0          0          0       2092   adc.o
       448         22          0        142          0       4438   b3470.o
       272         24          0          0         44       2705   buzzer.o
       972         94          0          1      15363      10007   can.o
       342         26          0          8          0       3072   coder.o
       408         68          0          2          0       5208   cooler.o
       628         80          0          4       1524      28830   main.o
      1306         82          0         20         36       9197   microstepdriver.o
       120         14          0          0          0       1771   misc.o
       988        160          0         15          1       3108   mission.o
      1784        246          0          0         40      11147   msd_test.o
       408         44          0          0         20       6188   notification.o
       284         44          0          0        216       3395   one_dimension_code.o
        36          8        392          0       1024        944   startup_stm32f40_41xxx.o
       286         20          0          0          0       6162   stm32f4xx_adc.o
       758         10          0          0          0       5264   stm32f4xx_can.o
        84          4          0          0          0       1955   stm32f4xx_dma.o
       124         10          0          0          0       1797   stm32f4xx_exti.o
       310         30          0          0          0       4655   stm32f4xx_flash.o
       160          0          0          0          0       3215   stm32f4xx_gpio.o
       316         48          0         16          0       7289   stm32f4xx_rcc.o
        48          6          0          0          0        740   stm32f4xx_syscfg.o
       832         36          0          0          0      17912   stm32f4xx_tim.o
       344         42          0          0          0       2568   stm32f4xx_usart.o
       116         32          0          4          0       6493   stm32fxxx_it.o
      1028        124          0          2        100       7987   stmflash.o
       272         36          0         20          0       1889   system_stm32f4xx.o
      1256        128          0          4        132       7145   temp_control.o
       434        124         20          0          0      14221   tm_stm32f4_dma.o
       306         16          0          0         22       4166   tm_stm32f4_gpio.o
      1534        234          0         96        192      15333   tm_stm32f4_usart.o
       260         48          0         48         60       3068   tm_stm32f4_usart_dma.o
       184         10          0          0          0        855   tm_stm32f4_watchdog.o
       384         86          0          7         52       2991   usart_screen.o
       454         14          0          0          0       2907   usb_bsp.o
      2104         32          0          0          0     379524   usb_core.o
       532          0          0          0          0       6995   usb_dcd.o
      1402         52          0          0          0       9202   usb_dcd_int.o
       506         46          0        140       2048      14584   usbd_cdc_core.o
       596          4          0         52          0      10096   usbd_core.o
       272        142          0         60         25       5900   usbd_desc.o
       184          0          0          0          0       5318   usbd_ioreq.o
      1204         52          0         16        255       9213   usbd_req.o
       112         26          0         29          0       4882   usbd_usr.o
       226         56          0         20          0       4428   wwdg.o

    ----------------------------------------------------------------------
     24884       2384        446        716      21684     660856   Object Totals
         0          0         32          0          0          0   (incl. Generated)
        58          0          2         10        530          0   (incl. Padding)

    ----------------------------------------------------------------------

      Code (inc. data)   RO Data    RW Data    ZI Data      Debug   Library Member Name

       122          0          0          0          0        148   sqrt.o
        86          0          0          0          0          0   __dczerorl2.o
         0          0          0          0          0          0   entry.o
         0          0          0          0          0          0   entry10a.o
         0          0          0          0          0          0   entry11a.o
         8          4          0          0          0          0   entry2.o
         4          0          0          0          0          0   entry5.o
         0          0          0          0          0          0   entry7b.o
         0          0          0          0          0          0   entry8b.o
         8          4          0          0          0          0   entry9a.o
        12          6          0          4          0         68   errno.o
        30          0          0          0          0          0   handlers.o
        36          8          0          0          0         68   init.o
         0          0          0          0          0          0   iusefp.o
        30          0          0          0          0         68   llshl.o
        36          0          0          0          0         68   llsshr.o
        32          0          0          0          0         68   llushr.o
        36          0          0          0          0         68   memcpya.o
      1172         50          0          0          0        420   printf8.o
        98          0          0          0          0         92   uldiv.o
        56          0          0          0          0         88   d2f.o
       334          0          0          0          0        148   dadd.o
       222          0          0          0          0        100   ddiv.o
       186          0          0          0          0        176   depilogue.o
        50          0          0          0          0         76   dfixui.o
        26          0          0          0          0         76   dfltui.o
       228          0          0          0          0         96   dmul.o
       162          0          0          0          0        100   dsqrt.o
       110          0          0          0          0        168   fepilogue.o

    ----------------------------------------------------------------------
      3086         72          0          4          0       2096   Library Totals
         2          0          0          0          0          0   (incl. Padding)

    ----------------------------------------------------------------------

      Code (inc. data)   RO Data    RW Data    ZI Data      Debug   Library Name

       122          0          0          0          0        148   m_wm.l
      1588         72          0          4          0        920   mc_w.l
      1374          0          0          0          0       1028   mf_w.l

    ----------------------------------------------------------------------
      3086         72          0          4          0       2096   Library Totals

    ----------------------------------------------------------------------

==============================================================================


      Code (inc. data)   RO Data    RW Data    ZI Data      Debug   

     27970       2456        446        720      21684     630748   Grand Totals
     27970       2456        446        420      21684     630748   ELF Image Totals (compressed)
     27970       2456        446        420          0          0   ROM Totals

==============================================================================

    Total RO  Size (Code + RO Data)                28416 (  27.75kB)
    Total RW  Size (RW Data + ZI Data)             22404 (  21.88kB)
    Total ROM Size (Code + RO Data + RW Data)      28836 (  28.16kB)

==============================================================================

